	.text
	.file	"utils.cpp"
	.section	.text.startup,"ax",@progbits
	.p2align	4, 0x90                         # -- Begin function __cxx_global_var_init
	.type	__cxx_global_var_init,@function
__cxx_global_var_init:                  # @__cxx_global_var_init
	.cfi_startproc
# %bb.0:
	pushq	%rbp
	.cfi_def_cfa_offset 16
	.cfi_offset %rbp, -16
	movq	%rsp, %rbp
	.cfi_def_cfa_register %rbp
	leaq	_ZStL8__ioinit(%rip), %rdi
	callq	_ZNSt8ios_base4InitC1Ev@PLT
	movq	_ZNSt8ios_base4InitD1Ev@GOTPCREL(%rip), %rax
	movq	%rax, %rdi
	leaq	_ZStL8__ioinit(%rip), %rsi
	leaq	__dso_handle(%rip), %rdx
	callq	__cxa_atexit@PLT
	popq	%rbp
	.cfi_def_cfa %rsp, 8
	retq
.Lfunc_end0:
	.size	__cxx_global_var_init, .Lfunc_end0-__cxx_global_var_init
	.cfi_endproc
                                        # -- End function
	.text
	.globl	_Z15sendToUciClientRKNSt7__cxx1112basic_stringIcSt11char_traitsIcESaIcEEE # -- Begin function _Z15sendToUciClientRKNSt7__cxx1112basic_stringIcSt11char_traitsIcESaIcEEE
	.p2align	4, 0x90
	.type	_Z15sendToUciClientRKNSt7__cxx1112basic_stringIcSt11char_traitsIcESaIcEEE,@function
_Z15sendToUciClientRKNSt7__cxx1112basic_stringIcSt11char_traitsIcESaIcEEE: # @_Z15sendToUciClientRKNSt7__cxx1112basic_stringIcSt11char_traitsIcESaIcEEE
	.cfi_startproc
# %bb.0:
	pushq	%rbp
	.cfi_def_cfa_offset 16
	.cfi_offset %rbp, -16
	movq	%rsp, %rbp
	.cfi_def_cfa_register %rbp
	subq	$16, %rsp
	movq	_ZSt4cout@GOTPCREL(%rip), %rax
	movq	%rdi, -8(%rbp)
	movq	-8(%rbp), %rsi
	movq	%rax, %rdi
	callq	_ZStlsIcSt11char_traitsIcESaIcEERSt13basic_ostreamIT_T0_ES7_RKNSt7__cxx1112basic_stringIS4_S5_T1_EE@PLT
	movq	_ZSt4endlIcSt11char_traitsIcEERSt13basic_ostreamIT_T0_ES6_@GOTPCREL(%rip), %rsi
	movq	%rax, %rdi
	callq	_ZNSolsEPFRSoS_E@PLT
	addq	$16, %rsp
	popq	%rbp
	.cfi_def_cfa %rsp, 8
	retq
.Lfunc_end1:
	.size	_Z15sendToUciClientRKNSt7__cxx1112basic_stringIcSt11char_traitsIcESaIcEEE, .Lfunc_end1-_Z15sendToUciClientRKNSt7__cxx1112basic_stringIcSt11char_traitsIcESaIcEEE
	.cfi_endproc
                                        # -- End function
	.globl	_Z8tokenizeNSt7__cxx1112basic_stringIcSt11char_traitsIcESaIcEEE # -- Begin function _Z8tokenizeNSt7__cxx1112basic_stringIcSt11char_traitsIcESaIcEEE
	.p2align	4, 0x90
	.type	_Z8tokenizeNSt7__cxx1112basic_stringIcSt11char_traitsIcESaIcEEE,@function
_Z8tokenizeNSt7__cxx1112basic_stringIcSt11char_traitsIcESaIcEEE: # @_Z8tokenizeNSt7__cxx1112basic_stringIcSt11char_traitsIcESaIcEEE
.Lfunc_begin0:
	.cfi_startproc
	.cfi_personality 155, DW.ref.__gxx_personality_v0
	.cfi_lsda 27, .Lexception0
# %bb.0:
	pushq	%rbp
	.cfi_def_cfa_offset 16
	.cfi_offset %rbp, -16
	movq	%rsp, %rbp
	.cfi_def_cfa_register %rbp
	subq	$576, %rsp                      # imm = 0x240
	movq	%rdi, %rax
	movq	%fs:40, %rcx
	movq	%rcx, -8(%rbp)
	movq	%rdi, -496(%rbp)
	leaq	-392(%rbp), %rcx
	movl	$8, %edx
	movq	%rdi, -544(%rbp)                # 8-byte Spill
	movq	%rcx, %rdi
	movq	%rax, -552(%rbp)                # 8-byte Spill
	movq	%rcx, -560(%rbp)                # 8-byte Spill
	callq	_ZNSt7__cxx1119basic_istringstreamIcSt11char_traitsIcESaIcEEC1ERKNS_12basic_stringIcS2_S3_EESt13_Ios_Openmode@PLT
	movb	$0, -497(%rbp)
	movq	-544(%rbp), %rdi                # 8-byte Reload
	callq	_ZNSt6vectorINSt7__cxx1112basic_stringIcSt11char_traitsIcESaIcEEESaIS5_EEC2Ev
.Ltmp0:
	leaq	-440(%rbp), %rdi
	movq	-560(%rbp), %rsi                # 8-byte Reload
	callq	_ZNSt16istream_iteratorINSt7__cxx1112basic_stringIcSt11char_traitsIcESaIcEEEcS3_lEC2ERSi
.Ltmp1:
	jmp	.LBB2_1
.LBB2_1:
.Ltmp3:
	leaq	-488(%rbp), %rdi
	callq	_ZNSt16istream_iteratorINSt7__cxx1112basic_stringIcSt11char_traitsIcESaIcEEEcS3_lEC2Ev
.Ltmp4:
	jmp	.LBB2_2
.LBB2_2:
.Ltmp6:
	movq	-544(%rbp), %rdi                # 8-byte Reload
	callq	_ZSt13back_inserterISt6vectorINSt7__cxx1112basic_stringIcSt11char_traitsIcESaIcEEESaIS6_EEESt20back_insert_iteratorIT_ERSA_
.Ltmp7:
	movq	%rax, -568(%rbp)                # 8-byte Spill
	jmp	.LBB2_3
.LBB2_3:
	movq	-568(%rbp), %rax                # 8-byte Reload
	movq	%rax, -528(%rbp)
	movq	-528(%rbp), %rdx
.Ltmp8:
	leaq	-440(%rbp), %rdi
	leaq	-488(%rbp), %rsi
	callq	_ZSt4copyISt16istream_iteratorINSt7__cxx1112basic_stringIcSt11char_traitsIcESaIcEEEcS4_lESt20back_insert_iteratorISt6vectorIS6_SaIS6_EEEET0_T_SE_SD_
.Ltmp9:
	movq	%rax, -576(%rbp)                # 8-byte Spill
	jmp	.LBB2_4
.LBB2_4:
	movq	-576(%rbp), %rax                # 8-byte Reload
	movq	%rax, -536(%rbp)
	leaq	-488(%rbp), %rdi
	callq	_ZNSt16istream_iteratorINSt7__cxx1112basic_stringIcSt11char_traitsIcESaIcEEEcS3_lED2Ev
	leaq	-440(%rbp), %rdi
	callq	_ZNSt16istream_iteratorINSt7__cxx1112basic_stringIcSt11char_traitsIcESaIcEEEcS3_lED2Ev
	movb	$1, -497(%rbp)
	testb	$1, -497(%rbp)
	jne	.LBB2_10
	jmp	.LBB2_9
.LBB2_5:
.Ltmp2:
                                        # kill: def $edx killed $edx killed $rdx
	movq	%rax, -512(%rbp)
	movl	%edx, -516(%rbp)
	jmp	.LBB2_12
.LBB2_6:
.Ltmp5:
                                        # kill: def $edx killed $edx killed $rdx
	movq	%rax, -512(%rbp)
	movl	%edx, -516(%rbp)
	jmp	.LBB2_8
.LBB2_7:
.Ltmp10:
                                        # kill: def $edx killed $edx killed $rdx
	movq	%rax, -512(%rbp)
	movl	%edx, -516(%rbp)
	leaq	-488(%rbp), %rdi
	callq	_ZNSt16istream_iteratorINSt7__cxx1112basic_stringIcSt11char_traitsIcESaIcEEEcS3_lED2Ev
.LBB2_8:
	leaq	-440(%rbp), %rdi
	callq	_ZNSt16istream_iteratorINSt7__cxx1112basic_stringIcSt11char_traitsIcESaIcEEEcS3_lED2Ev
	jmp	.LBB2_12
.LBB2_9:
	movq	-544(%rbp), %rdi                # 8-byte Reload
	callq	_ZNSt6vectorINSt7__cxx1112basic_stringIcSt11char_traitsIcESaIcEEESaIS5_EED2Ev
.LBB2_10:
	leaq	-392(%rbp), %rdi
	callq	_ZNSt7__cxx1119basic_istringstreamIcSt11char_traitsIcESaIcEED1Ev@PLT
	movq	%fs:40, %rax
	movq	-8(%rbp), %rcx
	cmpq	%rcx, %rax
	jne	.LBB2_14
# %bb.11:
	movq	-552(%rbp), %rax                # 8-byte Reload
	addq	$576, %rsp                      # imm = 0x240
	popq	%rbp
	.cfi_def_cfa %rsp, 8
	retq
.LBB2_12:
	.cfi_def_cfa %rbp, 16
	movq	-544(%rbp), %rdi                # 8-byte Reload
	callq	_ZNSt6vectorINSt7__cxx1112basic_stringIcSt11char_traitsIcESaIcEEESaIS5_EED2Ev
	leaq	-392(%rbp), %rdi
	callq	_ZNSt7__cxx1119basic_istringstreamIcSt11char_traitsIcESaIcEED1Ev@PLT
# %bb.13:
	movq	-512(%rbp), %rdi
	callq	_Unwind_Resume@PLT
.LBB2_14:
	callq	__stack_chk_fail@PLT
.Lfunc_end2:
	.size	_Z8tokenizeNSt7__cxx1112basic_stringIcSt11char_traitsIcESaIcEEE, .Lfunc_end2-_Z8tokenizeNSt7__cxx1112basic_stringIcSt11char_traitsIcESaIcEEE
	.cfi_endproc
	.section	.gcc_except_table,"a",@progbits
	.p2align	2
GCC_except_table2:
.Lexception0:
	.byte	255                             # @LPStart Encoding = omit
	.byte	255                             # @TType Encoding = omit
	.byte	1                               # Call site Encoding = uleb128
	.uleb128 .Lcst_end0-.Lcst_begin0
.Lcst_begin0:
	.uleb128 .Lfunc_begin0-.Lfunc_begin0    # >> Call Site 1 <<
	.uleb128 .Ltmp0-.Lfunc_begin0           #   Call between .Lfunc_begin0 and .Ltmp0
	.byte	0                               #     has no landing pad
	.byte	0                               #   On action: cleanup
	.uleb128 .Ltmp0-.Lfunc_begin0           # >> Call Site 2 <<
	.uleb128 .Ltmp1-.Ltmp0                  #   Call between .Ltmp0 and .Ltmp1
	.uleb128 .Ltmp2-.Lfunc_begin0           #     jumps to .Ltmp2
	.byte	0                               #   On action: cleanup
	.uleb128 .Ltmp3-.Lfunc_begin0           # >> Call Site 3 <<
	.uleb128 .Ltmp4-.Ltmp3                  #   Call between .Ltmp3 and .Ltmp4
	.uleb128 .Ltmp5-.Lfunc_begin0           #     jumps to .Ltmp5
	.byte	0                               #   On action: cleanup
	.uleb128 .Ltmp6-.Lfunc_begin0           # >> Call Site 4 <<
	.uleb128 .Ltmp9-.Ltmp6                  #   Call between .Ltmp6 and .Ltmp9
	.uleb128 .Ltmp10-.Lfunc_begin0          #     jumps to .Ltmp10
	.byte	0                               #   On action: cleanup
	.uleb128 .Ltmp9-.Lfunc_begin0           # >> Call Site 5 <<
	.uleb128 .Lfunc_end2-.Ltmp9             #   Call between .Ltmp9 and .Lfunc_end2
	.byte	0                               #     has no landing pad
	.byte	0                               #   On action: cleanup
.Lcst_end0:
	.p2align	2
                                        # -- End function
	.section	.text._ZNSt6vectorINSt7__cxx1112basic_stringIcSt11char_traitsIcESaIcEEESaIS5_EEC2Ev,"axG",@progbits,_ZNSt6vectorINSt7__cxx1112basic_stringIcSt11char_traitsIcESaIcEEESaIS5_EEC2Ev,comdat
	.weak	_ZNSt6vectorINSt7__cxx1112basic_stringIcSt11char_traitsIcESaIcEEESaIS5_EEC2Ev # -- Begin function _ZNSt6vectorINSt7__cxx1112basic_stringIcSt11char_traitsIcESaIcEEESaIS5_EEC2Ev
	.p2align	4, 0x90
	.type	_ZNSt6vectorINSt7__cxx1112basic_stringIcSt11char_traitsIcESaIcEEESaIS5_EEC2Ev,@function
_ZNSt6vectorINSt7__cxx1112basic_stringIcSt11char_traitsIcESaIcEEESaIS5_EEC2Ev: # @_ZNSt6vectorINSt7__cxx1112basic_stringIcSt11char_traitsIcESaIcEEESaIS5_EEC2Ev
	.cfi_startproc
# %bb.0:
	pushq	%rbp
	.cfi_def_cfa_offset 16
	.cfi_offset %rbp, -16
	movq	%rsp, %rbp
	.cfi_def_cfa_register %rbp
	subq	$16, %rsp
	movq	%rdi, -8(%rbp)
	movq	-8(%rbp), %rax
	movq	%rax, %rdi
	callq	_ZNSt12_Vector_baseINSt7__cxx1112basic_stringIcSt11char_traitsIcESaIcEEESaIS5_EEC2Ev
	addq	$16, %rsp
	popq	%rbp
	.cfi_def_cfa %rsp, 8
	retq
.Lfunc_end3:
	.size	_ZNSt6vectorINSt7__cxx1112basic_stringIcSt11char_traitsIcESaIcEEESaIS5_EEC2Ev, .Lfunc_end3-_ZNSt6vectorINSt7__cxx1112basic_stringIcSt11char_traitsIcESaIcEEESaIS5_EEC2Ev
	.cfi_endproc
                                        # -- End function
	.section	.text._ZSt4copyISt16istream_iteratorINSt7__cxx1112basic_stringIcSt11char_traitsIcESaIcEEEcS4_lESt20back_insert_iteratorISt6vectorIS6_SaIS6_EEEET0_T_SE_SD_,"axG",@progbits,_ZSt4copyISt16istream_iteratorINSt7__cxx1112basic_stringIcSt11char_traitsIcESaIcEEEcS4_lESt20back_insert_iteratorISt6vectorIS6_SaIS6_EEEET0_T_SE_SD_,comdat
	.weak	_ZSt4copyISt16istream_iteratorINSt7__cxx1112basic_stringIcSt11char_traitsIcESaIcEEEcS4_lESt20back_insert_iteratorISt6vectorIS6_SaIS6_EEEET0_T_SE_SD_ # -- Begin function _ZSt4copyISt16istream_iteratorINSt7__cxx1112basic_stringIcSt11char_traitsIcESaIcEEEcS4_lESt20back_insert_iteratorISt6vectorIS6_SaIS6_EEEET0_T_SE_SD_
	.p2align	4, 0x90
	.type	_ZSt4copyISt16istream_iteratorINSt7__cxx1112basic_stringIcSt11char_traitsIcESaIcEEEcS4_lESt20back_insert_iteratorISt6vectorIS6_SaIS6_EEEET0_T_SE_SD_,@function
_ZSt4copyISt16istream_iteratorINSt7__cxx1112basic_stringIcSt11char_traitsIcESaIcEEEcS4_lESt20back_insert_iteratorISt6vectorIS6_SaIS6_EEEET0_T_SE_SD_: # @_ZSt4copyISt16istream_iteratorINSt7__cxx1112basic_stringIcSt11char_traitsIcESaIcEEEcS4_lESt20back_insert_iteratorISt6vectorIS6_SaIS6_EEEET0_T_SE_SD_
.Lfunc_begin1:
	.cfi_startproc
	.cfi_personality 155, DW.ref.__gxx_personality_v0
	.cfi_lsda 27, .Lexception1
# %bb.0:
	pushq	%rbp
	.cfi_def_cfa_offset 16
	.cfi_offset %rbp, -16
	movq	%rsp, %rbp
	.cfi_def_cfa_register %rbp
	subq	$288, %rsp                      # imm = 0x120
	movq	%fs:40, %rax
	movq	%rax, -8(%rbp)
	movq	%rdx, -208(%rbp)
	leaq	-104(%rbp), %rax
	movq	%rdi, -248(%rbp)                # 8-byte Spill
	movq	%rax, %rdi
	movq	-248(%rbp), %rcx                # 8-byte Reload
	movq	%rsi, -256(%rbp)                # 8-byte Spill
	movq	%rcx, %rsi
	movq	%rax, -264(%rbp)                # 8-byte Spill
	callq	_ZNSt16istream_iteratorINSt7__cxx1112basic_stringIcSt11char_traitsIcESaIcEEEcS3_lEC2ERKS6_
.Ltmp11:
	leaq	-56(%rbp), %rdi
	movq	-264(%rbp), %rsi                # 8-byte Reload
	callq	_ZSt12__miter_baseISt16istream_iteratorINSt7__cxx1112basic_stringIcSt11char_traitsIcESaIcEEEcS4_lEET_S8_
.Ltmp12:
	jmp	.LBB4_1
.LBB4_1:
.Ltmp14:
	leaq	-200(%rbp), %rdi
	movq	-256(%rbp), %rsi                # 8-byte Reload
	callq	_ZNSt16istream_iteratorINSt7__cxx1112basic_stringIcSt11char_traitsIcESaIcEEEcS3_lEC2ERKS6_
.Ltmp15:
	jmp	.LBB4_2
.LBB4_2:
.Ltmp17:
	leaq	-152(%rbp), %rdi
	leaq	-200(%rbp), %rsi
	callq	_ZSt12__miter_baseISt16istream_iteratorINSt7__cxx1112basic_stringIcSt11char_traitsIcESaIcEEEcS4_lEET_S8_
.Ltmp18:
	jmp	.LBB4_3
.LBB4_3:
	movq	-208(%rbp), %rax
	movq	%rax, -216(%rbp)
	movq	-216(%rbp), %rdx
.Ltmp20:
	leaq	-56(%rbp), %rdi
	leaq	-152(%rbp), %rsi
	callq	_ZSt13__copy_move_aILb0ESt16istream_iteratorINSt7__cxx1112basic_stringIcSt11char_traitsIcESaIcEEEcS4_lESt20back_insert_iteratorISt6vectorIS6_SaIS6_EEEET1_T0_SE_SD_
.Ltmp21:
	movq	%rax, -272(%rbp)                # 8-byte Spill
	jmp	.LBB4_4
.LBB4_4:
	movq	-272(%rbp), %rax                # 8-byte Reload
	movq	%rax, -224(%rbp)
	leaq	-152(%rbp), %rdi
	callq	_ZNSt16istream_iteratorINSt7__cxx1112basic_stringIcSt11char_traitsIcESaIcEEEcS3_lED2Ev
	leaq	-200(%rbp), %rdi
	callq	_ZNSt16istream_iteratorINSt7__cxx1112basic_stringIcSt11char_traitsIcESaIcEEEcS3_lED2Ev
	leaq	-56(%rbp), %rdi
	callq	_ZNSt16istream_iteratorINSt7__cxx1112basic_stringIcSt11char_traitsIcESaIcEEEcS3_lED2Ev
	leaq	-104(%rbp), %rdi
	callq	_ZNSt16istream_iteratorINSt7__cxx1112basic_stringIcSt11char_traitsIcESaIcEEEcS3_lED2Ev
	movq	-224(%rbp), %rax
	movq	%fs:40, %rcx
	movq	-8(%rbp), %rdx
	cmpq	%rdx, %rcx
	movq	%rax, -280(%rbp)                # 8-byte Spill
	jne	.LBB4_14
# %bb.5:
	movq	-280(%rbp), %rax                # 8-byte Reload
	addq	$288, %rsp                      # imm = 0x120
	popq	%rbp
	.cfi_def_cfa %rsp, 8
	retq
.LBB4_6:
	.cfi_def_cfa %rbp, 16
.Ltmp13:
                                        # kill: def $edx killed $edx killed $rdx
	movq	%rax, -232(%rbp)
	movl	%edx, -236(%rbp)
	jmp	.LBB4_12
.LBB4_7:
.Ltmp16:
                                        # kill: def $edx killed $edx killed $rdx
	movq	%rax, -232(%rbp)
	movl	%edx, -236(%rbp)
	jmp	.LBB4_11
.LBB4_8:
.Ltmp19:
                                        # kill: def $edx killed $edx killed $rdx
	movq	%rax, -232(%rbp)
	movl	%edx, -236(%rbp)
	jmp	.LBB4_10
.LBB4_9:
.Ltmp22:
                                        # kill: def $edx killed $edx killed $rdx
	movq	%rax, -232(%rbp)
	movl	%edx, -236(%rbp)
	leaq	-152(%rbp), %rdi
	callq	_ZNSt16istream_iteratorINSt7__cxx1112basic_stringIcSt11char_traitsIcESaIcEEEcS3_lED2Ev
.LBB4_10:
	leaq	-200(%rbp), %rdi
	callq	_ZNSt16istream_iteratorINSt7__cxx1112basic_stringIcSt11char_traitsIcESaIcEEEcS3_lED2Ev
.LBB4_11:
	leaq	-56(%rbp), %rdi
	callq	_ZNSt16istream_iteratorINSt7__cxx1112basic_stringIcSt11char_traitsIcESaIcEEEcS3_lED2Ev
.LBB4_12:
	leaq	-104(%rbp), %rdi
	callq	_ZNSt16istream_iteratorINSt7__cxx1112basic_stringIcSt11char_traitsIcESaIcEEEcS3_lED2Ev
# %bb.13:
	movq	-232(%rbp), %rdi
	callq	_Unwind_Resume@PLT
.LBB4_14:
	callq	__stack_chk_fail@PLT
.Lfunc_end4:
	.size	_ZSt4copyISt16istream_iteratorINSt7__cxx1112basic_stringIcSt11char_traitsIcESaIcEEEcS4_lESt20back_insert_iteratorISt6vectorIS6_SaIS6_EEEET0_T_SE_SD_, .Lfunc_end4-_ZSt4copyISt16istream_iteratorINSt7__cxx1112basic_stringIcSt11char_traitsIcESaIcEEEcS4_lESt20back_insert_iteratorISt6vectorIS6_SaIS6_EEEET0_T_SE_SD_
	.cfi_endproc
	.section	.gcc_except_table,"a",@progbits
	.p2align	2
GCC_except_table4:
.Lexception1:
	.byte	255                             # @LPStart Encoding = omit
	.byte	255                             # @TType Encoding = omit
	.byte	1                               # Call site Encoding = uleb128
	.uleb128 .Lcst_end1-.Lcst_begin1
.Lcst_begin1:
	.uleb128 .Lfunc_begin1-.Lfunc_begin1    # >> Call Site 1 <<
	.uleb128 .Ltmp11-.Lfunc_begin1          #   Call between .Lfunc_begin1 and .Ltmp11
	.byte	0                               #     has no landing pad
	.byte	0                               #   On action: cleanup
	.uleb128 .Ltmp11-.Lfunc_begin1          # >> Call Site 2 <<
	.uleb128 .Ltmp12-.Ltmp11                #   Call between .Ltmp11 and .Ltmp12
	.uleb128 .Ltmp13-.Lfunc_begin1          #     jumps to .Ltmp13
	.byte	0                               #   On action: cleanup
	.uleb128 .Ltmp14-.Lfunc_begin1          # >> Call Site 3 <<
	.uleb128 .Ltmp15-.Ltmp14                #   Call between .Ltmp14 and .Ltmp15
	.uleb128 .Ltmp16-.Lfunc_begin1          #     jumps to .Ltmp16
	.byte	0                               #   On action: cleanup
	.uleb128 .Ltmp17-.Lfunc_begin1          # >> Call Site 4 <<
	.uleb128 .Ltmp18-.Ltmp17                #   Call between .Ltmp17 and .Ltmp18
	.uleb128 .Ltmp19-.Lfunc_begin1          #     jumps to .Ltmp19
	.byte	0                               #   On action: cleanup
	.uleb128 .Ltmp20-.Lfunc_begin1          # >> Call Site 5 <<
	.uleb128 .Ltmp21-.Ltmp20                #   Call between .Ltmp20 and .Ltmp21
	.uleb128 .Ltmp22-.Lfunc_begin1          #     jumps to .Ltmp22
	.byte	0                               #   On action: cleanup
	.uleb128 .Ltmp21-.Lfunc_begin1          # >> Call Site 6 <<
	.uleb128 .Lfunc_end4-.Ltmp21            #   Call between .Ltmp21 and .Lfunc_end4
	.byte	0                               #     has no landing pad
	.byte	0                               #   On action: cleanup
.Lcst_end1:
	.p2align	2
                                        # -- End function
	.section	.text._ZNSt16istream_iteratorINSt7__cxx1112basic_stringIcSt11char_traitsIcESaIcEEEcS3_lEC2ERSi,"axG",@progbits,_ZNSt16istream_iteratorINSt7__cxx1112basic_stringIcSt11char_traitsIcESaIcEEEcS3_lEC2ERSi,comdat
	.weak	_ZNSt16istream_iteratorINSt7__cxx1112basic_stringIcSt11char_traitsIcESaIcEEEcS3_lEC2ERSi # -- Begin function _ZNSt16istream_iteratorINSt7__cxx1112basic_stringIcSt11char_traitsIcESaIcEEEcS3_lEC2ERSi
	.p2align	4, 0x90
	.type	_ZNSt16istream_iteratorINSt7__cxx1112basic_stringIcSt11char_traitsIcESaIcEEEcS3_lEC2ERSi,@function
_ZNSt16istream_iteratorINSt7__cxx1112basic_stringIcSt11char_traitsIcESaIcEEEcS3_lEC2ERSi: # @_ZNSt16istream_iteratorINSt7__cxx1112basic_stringIcSt11char_traitsIcESaIcEEEcS3_lEC2ERSi
.Lfunc_begin2:
	.cfi_startproc
	.cfi_personality 155, DW.ref.__gxx_personality_v0
	.cfi_lsda 27, .Lexception2
# %bb.0:
	pushq	%rbp
	.cfi_def_cfa_offset 16
	.cfi_offset %rbp, -16
	movq	%rsp, %rbp
	.cfi_def_cfa_register %rbp
	subq	$48, %rsp
	movq	%rdi, -8(%rbp)
	movq	%rsi, -16(%rbp)
	movq	-8(%rbp), %rax
	movq	-16(%rbp), %rdi
	movq	%rax, -40(%rbp)                 # 8-byte Spill
	callq	_ZSt11__addressofISiEPT_RS0_
	movq	-40(%rbp), %rcx                 # 8-byte Reload
	movq	%rax, (%rcx)
	addq	$8, %rcx
	movq	%rcx, %rdi
	movq	%rcx, -48(%rbp)                 # 8-byte Spill
	callq	_ZNSt7__cxx1112basic_stringIcSt11char_traitsIcESaIcEEC1Ev@PLT
	movq	-40(%rbp), %rax                 # 8-byte Reload
	movb	$1, 40(%rax)
.Ltmp23:
	movq	%rax, %rdi
	callq	_ZNSt16istream_iteratorINSt7__cxx1112basic_stringIcSt11char_traitsIcESaIcEEEcS3_lE7_M_readEv
.Ltmp24:
	jmp	.LBB5_1
.LBB5_1:
	addq	$48, %rsp
	popq	%rbp
	.cfi_def_cfa %rsp, 8
	retq
.LBB5_2:
	.cfi_def_cfa %rbp, 16
.Ltmp25:
                                        # kill: def $edx killed $edx killed $rdx
	movq	%rax, -24(%rbp)
	movl	%edx, -28(%rbp)
	movq	-48(%rbp), %rdi                 # 8-byte Reload
	callq	_ZNSt7__cxx1112basic_stringIcSt11char_traitsIcESaIcEED1Ev@PLT
# %bb.3:
	movq	-24(%rbp), %rdi
	callq	_Unwind_Resume@PLT
.Lfunc_end5:
	.size	_ZNSt16istream_iteratorINSt7__cxx1112basic_stringIcSt11char_traitsIcESaIcEEEcS3_lEC2ERSi, .Lfunc_end5-_ZNSt16istream_iteratorINSt7__cxx1112basic_stringIcSt11char_traitsIcESaIcEEEcS3_lEC2ERSi
	.cfi_endproc
	.section	.gcc_except_table,"a",@progbits
	.p2align	2
GCC_except_table5:
.Lexception2:
	.byte	255                             # @LPStart Encoding = omit
	.byte	255                             # @TType Encoding = omit
	.byte	1                               # Call site Encoding = uleb128
	.uleb128 .Lcst_end2-.Lcst_begin2
.Lcst_begin2:
	.uleb128 .Ltmp23-.Lfunc_begin2          # >> Call Site 1 <<
	.uleb128 .Ltmp24-.Ltmp23                #   Call between .Ltmp23 and .Ltmp24
	.uleb128 .Ltmp25-.Lfunc_begin2          #     jumps to .Ltmp25
	.byte	0                               #   On action: cleanup
	.uleb128 .Ltmp24-.Lfunc_begin2          # >> Call Site 2 <<
	.uleb128 .Lfunc_end5-.Ltmp24            #   Call between .Ltmp24 and .Lfunc_end5
	.byte	0                               #     has no landing pad
	.byte	0                               #   On action: cleanup
.Lcst_end2:
	.p2align	2
                                        # -- End function
	.section	.text._ZNSt16istream_iteratorINSt7__cxx1112basic_stringIcSt11char_traitsIcESaIcEEEcS3_lEC2Ev,"axG",@progbits,_ZNSt16istream_iteratorINSt7__cxx1112basic_stringIcSt11char_traitsIcESaIcEEEcS3_lEC2Ev,comdat
	.weak	_ZNSt16istream_iteratorINSt7__cxx1112basic_stringIcSt11char_traitsIcESaIcEEEcS3_lEC2Ev # -- Begin function _ZNSt16istream_iteratorINSt7__cxx1112basic_stringIcSt11char_traitsIcESaIcEEEcS3_lEC2Ev
	.p2align	4, 0x90
	.type	_ZNSt16istream_iteratorINSt7__cxx1112basic_stringIcSt11char_traitsIcESaIcEEEcS3_lEC2Ev,@function
_ZNSt16istream_iteratorINSt7__cxx1112basic_stringIcSt11char_traitsIcESaIcEEEcS3_lEC2Ev: # @_ZNSt16istream_iteratorINSt7__cxx1112basic_stringIcSt11char_traitsIcESaIcEEEcS3_lEC2Ev
	.cfi_startproc
# %bb.0:
	pushq	%rbp
	.cfi_def_cfa_offset 16
	.cfi_offset %rbp, -16
	movq	%rsp, %rbp
	.cfi_def_cfa_register %rbp
	subq	$16, %rsp
	movq	%rdi, -8(%rbp)
	movq	-8(%rbp), %rax
	movq	$0, (%rax)
	movq	%rax, %rcx
	addq	$8, %rcx
	movq	%rcx, %rdi
	movq	%rax, -16(%rbp)                 # 8-byte Spill
	callq	_ZNSt7__cxx1112basic_stringIcSt11char_traitsIcESaIcEEC1Ev@PLT
	movq	-16(%rbp), %rax                 # 8-byte Reload
	movb	$0, 40(%rax)
	addq	$16, %rsp
	popq	%rbp
	.cfi_def_cfa %rsp, 8
	retq
.Lfunc_end6:
	.size	_ZNSt16istream_iteratorINSt7__cxx1112basic_stringIcSt11char_traitsIcESaIcEEEcS3_lEC2Ev, .Lfunc_end6-_ZNSt16istream_iteratorINSt7__cxx1112basic_stringIcSt11char_traitsIcESaIcEEEcS3_lEC2Ev
	.cfi_endproc
                                        # -- End function
	.section	.text._ZSt13back_inserterISt6vectorINSt7__cxx1112basic_stringIcSt11char_traitsIcESaIcEEESaIS6_EEESt20back_insert_iteratorIT_ERSA_,"axG",@progbits,_ZSt13back_inserterISt6vectorINSt7__cxx1112basic_stringIcSt11char_traitsIcESaIcEEESaIS6_EEESt20back_insert_iteratorIT_ERSA_,comdat
	.weak	_ZSt13back_inserterISt6vectorINSt7__cxx1112basic_stringIcSt11char_traitsIcESaIcEEESaIS6_EEESt20back_insert_iteratorIT_ERSA_ # -- Begin function _ZSt13back_inserterISt6vectorINSt7__cxx1112basic_stringIcSt11char_traitsIcESaIcEEESaIS6_EEESt20back_insert_iteratorIT_ERSA_
	.p2align	4, 0x90
	.type	_ZSt13back_inserterISt6vectorINSt7__cxx1112basic_stringIcSt11char_traitsIcESaIcEEESaIS6_EEESt20back_insert_iteratorIT_ERSA_,@function
_ZSt13back_inserterISt6vectorINSt7__cxx1112basic_stringIcSt11char_traitsIcESaIcEEESaIS6_EEESt20back_insert_iteratorIT_ERSA_: # @_ZSt13back_inserterISt6vectorINSt7__cxx1112basic_stringIcSt11char_traitsIcESaIcEEESaIS6_EEESt20back_insert_iteratorIT_ERSA_
	.cfi_startproc
# %bb.0:
	pushq	%rbp
	.cfi_def_cfa_offset 16
	.cfi_offset %rbp, -16
	movq	%rsp, %rbp
	.cfi_def_cfa_register %rbp
	subq	$32, %rsp
	movq	%fs:40, %rax
	movq	%rax, -8(%rbp)
	movq	%rdi, -24(%rbp)
	movq	-24(%rbp), %rsi
	leaq	-16(%rbp), %rdi
	callq	_ZNSt20back_insert_iteratorISt6vectorINSt7__cxx1112basic_stringIcSt11char_traitsIcESaIcEEESaIS6_EEEC2ERS8_
	movq	-16(%rbp), %rax
	movq	%fs:40, %rcx
	movq	-8(%rbp), %rdx
	cmpq	%rdx, %rcx
	movq	%rax, -32(%rbp)                 # 8-byte Spill
	jne	.LBB7_2
# %bb.1:
	movq	-32(%rbp), %rax                 # 8-byte Reload
	addq	$32, %rsp
	popq	%rbp
	.cfi_def_cfa %rsp, 8
	retq
.LBB7_2:
	.cfi_def_cfa %rbp, 16
	callq	__stack_chk_fail@PLT
.Lfunc_end7:
	.size	_ZSt13back_inserterISt6vectorINSt7__cxx1112basic_stringIcSt11char_traitsIcESaIcEEESaIS6_EEESt20back_insert_iteratorIT_ERSA_, .Lfunc_end7-_ZSt13back_inserterISt6vectorINSt7__cxx1112basic_stringIcSt11char_traitsIcESaIcEEESaIS6_EEESt20back_insert_iteratorIT_ERSA_
	.cfi_endproc
                                        # -- End function
	.section	.text._ZNSt16istream_iteratorINSt7__cxx1112basic_stringIcSt11char_traitsIcESaIcEEEcS3_lED2Ev,"axG",@progbits,_ZNSt16istream_iteratorINSt7__cxx1112basic_stringIcSt11char_traitsIcESaIcEEEcS3_lED2Ev,comdat
	.weak	_ZNSt16istream_iteratorINSt7__cxx1112basic_stringIcSt11char_traitsIcESaIcEEEcS3_lED2Ev # -- Begin function _ZNSt16istream_iteratorINSt7__cxx1112basic_stringIcSt11char_traitsIcESaIcEEEcS3_lED2Ev
	.p2align	4, 0x90
	.type	_ZNSt16istream_iteratorINSt7__cxx1112basic_stringIcSt11char_traitsIcESaIcEEEcS3_lED2Ev,@function
_ZNSt16istream_iteratorINSt7__cxx1112basic_stringIcSt11char_traitsIcESaIcEEEcS3_lED2Ev: # @_ZNSt16istream_iteratorINSt7__cxx1112basic_stringIcSt11char_traitsIcESaIcEEEcS3_lED2Ev
	.cfi_startproc
# %bb.0:
	pushq	%rbp
	.cfi_def_cfa_offset 16
	.cfi_offset %rbp, -16
	movq	%rsp, %rbp
	.cfi_def_cfa_register %rbp
	subq	$16, %rsp
	movq	%rdi, -8(%rbp)
	movq	-8(%rbp), %rax
	addq	$8, %rax
	movq	%rax, %rdi
	callq	_ZNSt7__cxx1112basic_stringIcSt11char_traitsIcESaIcEED1Ev@PLT
	addq	$16, %rsp
	popq	%rbp
	.cfi_def_cfa %rsp, 8
	retq
.Lfunc_end8:
	.size	_ZNSt16istream_iteratorINSt7__cxx1112basic_stringIcSt11char_traitsIcESaIcEEEcS3_lED2Ev, .Lfunc_end8-_ZNSt16istream_iteratorINSt7__cxx1112basic_stringIcSt11char_traitsIcESaIcEEEcS3_lED2Ev
	.cfi_endproc
                                        # -- End function
	.section	.text._ZNSt6vectorINSt7__cxx1112basic_stringIcSt11char_traitsIcESaIcEEESaIS5_EED2Ev,"axG",@progbits,_ZNSt6vectorINSt7__cxx1112basic_stringIcSt11char_traitsIcESaIcEEESaIS5_EED2Ev,comdat
	.weak	_ZNSt6vectorINSt7__cxx1112basic_stringIcSt11char_traitsIcESaIcEEESaIS5_EED2Ev # -- Begin function _ZNSt6vectorINSt7__cxx1112basic_stringIcSt11char_traitsIcESaIcEEESaIS5_EED2Ev
	.p2align	4, 0x90
	.type	_ZNSt6vectorINSt7__cxx1112basic_stringIcSt11char_traitsIcESaIcEEESaIS5_EED2Ev,@function
_ZNSt6vectorINSt7__cxx1112basic_stringIcSt11char_traitsIcESaIcEEESaIS5_EED2Ev: # @_ZNSt6vectorINSt7__cxx1112basic_stringIcSt11char_traitsIcESaIcEEESaIS5_EED2Ev
.Lfunc_begin3:
	.cfi_startproc
	.cfi_personality 155, DW.ref.__gxx_personality_v0
	.cfi_lsda 27, .Lexception3
# %bb.0:
	pushq	%rbp
	.cfi_def_cfa_offset 16
	.cfi_offset %rbp, -16
	movq	%rsp, %rbp
	.cfi_def_cfa_register %rbp
	subq	$48, %rsp
	movq	%rdi, -8(%rbp)
	movq	-8(%rbp), %rax
	movq	(%rax), %rdi
	movq	8(%rax), %rsi
	movq	%rdi, -32(%rbp)                 # 8-byte Spill
	movq	%rax, %rdi
	movq	%rax, -40(%rbp)                 # 8-byte Spill
	movq	%rsi, -48(%rbp)                 # 8-byte Spill
	callq	_ZNSt12_Vector_baseINSt7__cxx1112basic_stringIcSt11char_traitsIcESaIcEEESaIS5_EE19_M_get_Tp_allocatorEv
.Ltmp26:
	movq	-32(%rbp), %rdi                 # 8-byte Reload
	movq	-48(%rbp), %rsi                 # 8-byte Reload
	movq	%rax, %rdx
	callq	_ZSt8_DestroyIPNSt7__cxx1112basic_stringIcSt11char_traitsIcESaIcEEES5_EvT_S7_RSaIT0_E
.Ltmp27:
	jmp	.LBB9_1
.LBB9_1:
	movq	-40(%rbp), %rax                 # 8-byte Reload
	movq	%rax, %rdi
	callq	_ZNSt12_Vector_baseINSt7__cxx1112basic_stringIcSt11char_traitsIcESaIcEEESaIS5_EED2Ev
	addq	$48, %rsp
	popq	%rbp
	.cfi_def_cfa %rsp, 8
	retq
.LBB9_2:
	.cfi_def_cfa %rbp, 16
.Ltmp28:
                                        # kill: def $edx killed $edx killed $rdx
	movq	%rax, -16(%rbp)
	movl	%edx, -20(%rbp)
	movq	-40(%rbp), %rax                 # 8-byte Reload
	movq	%rax, %rdi
	callq	_ZNSt12_Vector_baseINSt7__cxx1112basic_stringIcSt11char_traitsIcESaIcEEESaIS5_EED2Ev
# %bb.3:
	movq	-16(%rbp), %rdi
	callq	__clang_call_terminate
.Lfunc_end9:
	.size	_ZNSt6vectorINSt7__cxx1112basic_stringIcSt11char_traitsIcESaIcEEESaIS5_EED2Ev, .Lfunc_end9-_ZNSt6vectorINSt7__cxx1112basic_stringIcSt11char_traitsIcESaIcEEESaIS5_EED2Ev
	.cfi_endproc
	.section	.gcc_except_table,"a",@progbits
	.p2align	2
GCC_except_table9:
.Lexception3:
	.byte	255                             # @LPStart Encoding = omit
	.byte	156                             # @TType Encoding = indirect pcrel sdata8
	.uleb128 .Lttbase0-.Lttbaseref0
.Lttbaseref0:
	.byte	1                               # Call site Encoding = uleb128
	.uleb128 .Lcst_end3-.Lcst_begin3
.Lcst_begin3:
	.uleb128 .Ltmp26-.Lfunc_begin3          # >> Call Site 1 <<
	.uleb128 .Ltmp27-.Ltmp26                #   Call between .Ltmp26 and .Ltmp27
	.uleb128 .Ltmp28-.Lfunc_begin3          #     jumps to .Ltmp28
	.byte	1                               #   On action: 1
.Lcst_end3:
	.byte	1                               # >> Action Record 1 <<
                                        #   Catch TypeInfo 1
	.byte	0                               #   No further actions
	.p2align	2
                                        # >> Catch TypeInfos <<
	.quad	0                               # TypeInfo 1
.Lttbase0:
	.p2align	2
                                        # -- End function
	.section	.text._ZNSt12_Vector_baseINSt7__cxx1112basic_stringIcSt11char_traitsIcESaIcEEESaIS5_EEC2Ev,"axG",@progbits,_ZNSt12_Vector_baseINSt7__cxx1112basic_stringIcSt11char_traitsIcESaIcEEESaIS5_EEC2Ev,comdat
	.weak	_ZNSt12_Vector_baseINSt7__cxx1112basic_stringIcSt11char_traitsIcESaIcEEESaIS5_EEC2Ev # -- Begin function _ZNSt12_Vector_baseINSt7__cxx1112basic_stringIcSt11char_traitsIcESaIcEEESaIS5_EEC2Ev
	.p2align	4, 0x90
	.type	_ZNSt12_Vector_baseINSt7__cxx1112basic_stringIcSt11char_traitsIcESaIcEEESaIS5_EEC2Ev,@function
_ZNSt12_Vector_baseINSt7__cxx1112basic_stringIcSt11char_traitsIcESaIcEEESaIS5_EEC2Ev: # @_ZNSt12_Vector_baseINSt7__cxx1112basic_stringIcSt11char_traitsIcESaIcEEESaIS5_EEC2Ev
	.cfi_startproc
# %bb.0:
	pushq	%rbp
	.cfi_def_cfa_offset 16
	.cfi_offset %rbp, -16
	movq	%rsp, %rbp
	.cfi_def_cfa_register %rbp
	subq	$16, %rsp
	movq	%rdi, -8(%rbp)
	movq	-8(%rbp), %rdi
	callq	_ZNSt12_Vector_baseINSt7__cxx1112basic_stringIcSt11char_traitsIcESaIcEEESaIS5_EE12_Vector_implC2Ev
	addq	$16, %rsp
	popq	%rbp
	.cfi_def_cfa %rsp, 8
	retq
.Lfunc_end10:
	.size	_ZNSt12_Vector_baseINSt7__cxx1112basic_stringIcSt11char_traitsIcESaIcEEESaIS5_EEC2Ev, .Lfunc_end10-_ZNSt12_Vector_baseINSt7__cxx1112basic_stringIcSt11char_traitsIcESaIcEEESaIS5_EEC2Ev
	.cfi_endproc
                                        # -- End function
	.section	.text._ZNSt12_Vector_baseINSt7__cxx1112basic_stringIcSt11char_traitsIcESaIcEEESaIS5_EE12_Vector_implC2Ev,"axG",@progbits,_ZNSt12_Vector_baseINSt7__cxx1112basic_stringIcSt11char_traitsIcESaIcEEESaIS5_EE12_Vector_implC2Ev,comdat
	.weak	_ZNSt12_Vector_baseINSt7__cxx1112basic_stringIcSt11char_traitsIcESaIcEEESaIS5_EE12_Vector_implC2Ev # -- Begin function _ZNSt12_Vector_baseINSt7__cxx1112basic_stringIcSt11char_traitsIcESaIcEEESaIS5_EE12_Vector_implC2Ev
	.p2align	4, 0x90
	.type	_ZNSt12_Vector_baseINSt7__cxx1112basic_stringIcSt11char_traitsIcESaIcEEESaIS5_EE12_Vector_implC2Ev,@function
_ZNSt12_Vector_baseINSt7__cxx1112basic_stringIcSt11char_traitsIcESaIcEEESaIS5_EE12_Vector_implC2Ev: # @_ZNSt12_Vector_baseINSt7__cxx1112basic_stringIcSt11char_traitsIcESaIcEEESaIS5_EE12_Vector_implC2Ev
	.cfi_startproc
# %bb.0:
	pushq	%rbp
	.cfi_def_cfa_offset 16
	.cfi_offset %rbp, -16
	movq	%rsp, %rbp
	.cfi_def_cfa_register %rbp
	subq	$16, %rsp
	movq	%rdi, -8(%rbp)
	movq	-8(%rbp), %rax
	movq	%rax, %rcx
	movq	%rcx, %rdi
	movq	%rax, -16(%rbp)                 # 8-byte Spill
	callq	_ZNSaINSt7__cxx1112basic_stringIcSt11char_traitsIcESaIcEEEEC2Ev
	movq	-16(%rbp), %rax                 # 8-byte Reload
	movq	%rax, %rdi
	callq	_ZNSt12_Vector_baseINSt7__cxx1112basic_stringIcSt11char_traitsIcESaIcEEESaIS5_EE17_Vector_impl_dataC2Ev
	addq	$16, %rsp
	popq	%rbp
	.cfi_def_cfa %rsp, 8
	retq
.Lfunc_end11:
	.size	_ZNSt12_Vector_baseINSt7__cxx1112basic_stringIcSt11char_traitsIcESaIcEEESaIS5_EE12_Vector_implC2Ev, .Lfunc_end11-_ZNSt12_Vector_baseINSt7__cxx1112basic_stringIcSt11char_traitsIcESaIcEEESaIS5_EE12_Vector_implC2Ev
	.cfi_endproc
                                        # -- End function
	.section	.text._ZNSaINSt7__cxx1112basic_stringIcSt11char_traitsIcESaIcEEEEC2Ev,"axG",@progbits,_ZNSaINSt7__cxx1112basic_stringIcSt11char_traitsIcESaIcEEEEC2Ev,comdat
	.weak	_ZNSaINSt7__cxx1112basic_stringIcSt11char_traitsIcESaIcEEEEC2Ev # -- Begin function _ZNSaINSt7__cxx1112basic_stringIcSt11char_traitsIcESaIcEEEEC2Ev
	.p2align	4, 0x90
	.type	_ZNSaINSt7__cxx1112basic_stringIcSt11char_traitsIcESaIcEEEEC2Ev,@function
_ZNSaINSt7__cxx1112basic_stringIcSt11char_traitsIcESaIcEEEEC2Ev: # @_ZNSaINSt7__cxx1112basic_stringIcSt11char_traitsIcESaIcEEEEC2Ev
	.cfi_startproc
# %bb.0:
	pushq	%rbp
	.cfi_def_cfa_offset 16
	.cfi_offset %rbp, -16
	movq	%rsp, %rbp
	.cfi_def_cfa_register %rbp
	subq	$16, %rsp
	movq	%rdi, -8(%rbp)
	movq	-8(%rbp), %rax
	movq	%rax, %rdi
	callq	_ZN9__gnu_cxx13new_allocatorINSt7__cxx1112basic_stringIcSt11char_traitsIcESaIcEEEEC2Ev
	addq	$16, %rsp
	popq	%rbp
	.cfi_def_cfa %rsp, 8
	retq
.Lfunc_end12:
	.size	_ZNSaINSt7__cxx1112basic_stringIcSt11char_traitsIcESaIcEEEEC2Ev, .Lfunc_end12-_ZNSaINSt7__cxx1112basic_stringIcSt11char_traitsIcESaIcEEEEC2Ev
	.cfi_endproc
                                        # -- End function
	.section	.text._ZNSt12_Vector_baseINSt7__cxx1112basic_stringIcSt11char_traitsIcESaIcEEESaIS5_EE17_Vector_impl_dataC2Ev,"axG",@progbits,_ZNSt12_Vector_baseINSt7__cxx1112basic_stringIcSt11char_traitsIcESaIcEEESaIS5_EE17_Vector_impl_dataC2Ev,comdat
	.weak	_ZNSt12_Vector_baseINSt7__cxx1112basic_stringIcSt11char_traitsIcESaIcEEESaIS5_EE17_Vector_impl_dataC2Ev # -- Begin function _ZNSt12_Vector_baseINSt7__cxx1112basic_stringIcSt11char_traitsIcESaIcEEESaIS5_EE17_Vector_impl_dataC2Ev
	.p2align	4, 0x90
	.type	_ZNSt12_Vector_baseINSt7__cxx1112basic_stringIcSt11char_traitsIcESaIcEEESaIS5_EE17_Vector_impl_dataC2Ev,@function
_ZNSt12_Vector_baseINSt7__cxx1112basic_stringIcSt11char_traitsIcESaIcEEESaIS5_EE17_Vector_impl_dataC2Ev: # @_ZNSt12_Vector_baseINSt7__cxx1112basic_stringIcSt11char_traitsIcESaIcEEESaIS5_EE17_Vector_impl_dataC2Ev
	.cfi_startproc
# %bb.0:
	pushq	%rbp
	.cfi_def_cfa_offset 16
	.cfi_offset %rbp, -16
	movq	%rsp, %rbp
	.cfi_def_cfa_register %rbp
	movq	%rdi, -8(%rbp)
	movq	-8(%rbp), %rax
	movq	$0, (%rax)
	movq	$0, 8(%rax)
	movq	$0, 16(%rax)
	popq	%rbp
	.cfi_def_cfa %rsp, 8
	retq
.Lfunc_end13:
	.size	_ZNSt12_Vector_baseINSt7__cxx1112basic_stringIcSt11char_traitsIcESaIcEEESaIS5_EE17_Vector_impl_dataC2Ev, .Lfunc_end13-_ZNSt12_Vector_baseINSt7__cxx1112basic_stringIcSt11char_traitsIcESaIcEEESaIS5_EE17_Vector_impl_dataC2Ev
	.cfi_endproc
                                        # -- End function
	.section	.text._ZN9__gnu_cxx13new_allocatorINSt7__cxx1112basic_stringIcSt11char_traitsIcESaIcEEEEC2Ev,"axG",@progbits,_ZN9__gnu_cxx13new_allocatorINSt7__cxx1112basic_stringIcSt11char_traitsIcESaIcEEEEC2Ev,comdat
	.weak	_ZN9__gnu_cxx13new_allocatorINSt7__cxx1112basic_stringIcSt11char_traitsIcESaIcEEEEC2Ev # -- Begin function _ZN9__gnu_cxx13new_allocatorINSt7__cxx1112basic_stringIcSt11char_traitsIcESaIcEEEEC2Ev
	.p2align	4, 0x90
	.type	_ZN9__gnu_cxx13new_allocatorINSt7__cxx1112basic_stringIcSt11char_traitsIcESaIcEEEEC2Ev,@function
_ZN9__gnu_cxx13new_allocatorINSt7__cxx1112basic_stringIcSt11char_traitsIcESaIcEEEEC2Ev: # @_ZN9__gnu_cxx13new_allocatorINSt7__cxx1112basic_stringIcSt11char_traitsIcESaIcEEEEC2Ev
	.cfi_startproc
# %bb.0:
	pushq	%rbp
	.cfi_def_cfa_offset 16
	.cfi_offset %rbp, -16
	movq	%rsp, %rbp
	.cfi_def_cfa_register %rbp
	movq	%rdi, -8(%rbp)
	popq	%rbp
	.cfi_def_cfa %rsp, 8
	retq
.Lfunc_end14:
	.size	_ZN9__gnu_cxx13new_allocatorINSt7__cxx1112basic_stringIcSt11char_traitsIcESaIcEEEEC2Ev, .Lfunc_end14-_ZN9__gnu_cxx13new_allocatorINSt7__cxx1112basic_stringIcSt11char_traitsIcESaIcEEEEC2Ev
	.cfi_endproc
                                        # -- End function
	.section	.text._ZSt8_DestroyIPNSt7__cxx1112basic_stringIcSt11char_traitsIcESaIcEEES5_EvT_S7_RSaIT0_E,"axG",@progbits,_ZSt8_DestroyIPNSt7__cxx1112basic_stringIcSt11char_traitsIcESaIcEEES5_EvT_S7_RSaIT0_E,comdat
	.weak	_ZSt8_DestroyIPNSt7__cxx1112basic_stringIcSt11char_traitsIcESaIcEEES5_EvT_S7_RSaIT0_E # -- Begin function _ZSt8_DestroyIPNSt7__cxx1112basic_stringIcSt11char_traitsIcESaIcEEES5_EvT_S7_RSaIT0_E
	.p2align	4, 0x90
	.type	_ZSt8_DestroyIPNSt7__cxx1112basic_stringIcSt11char_traitsIcESaIcEEES5_EvT_S7_RSaIT0_E,@function
_ZSt8_DestroyIPNSt7__cxx1112basic_stringIcSt11char_traitsIcESaIcEEES5_EvT_S7_RSaIT0_E: # @_ZSt8_DestroyIPNSt7__cxx1112basic_stringIcSt11char_traitsIcESaIcEEES5_EvT_S7_RSaIT0_E
	.cfi_startproc
# %bb.0:
	pushq	%rbp
	.cfi_def_cfa_offset 16
	.cfi_offset %rbp, -16
	movq	%rsp, %rbp
	.cfi_def_cfa_register %rbp
	subq	$32, %rsp
	movq	%rdi, -8(%rbp)
	movq	%rsi, -16(%rbp)
	movq	%rdx, -24(%rbp)
	movq	-8(%rbp), %rdi
	movq	-16(%rbp), %rsi
	callq	_ZSt8_DestroyIPNSt7__cxx1112basic_stringIcSt11char_traitsIcESaIcEEEEvT_S7_
	addq	$32, %rsp
	popq	%rbp
	.cfi_def_cfa %rsp, 8
	retq
.Lfunc_end15:
	.size	_ZSt8_DestroyIPNSt7__cxx1112basic_stringIcSt11char_traitsIcESaIcEEES5_EvT_S7_RSaIT0_E, .Lfunc_end15-_ZSt8_DestroyIPNSt7__cxx1112basic_stringIcSt11char_traitsIcESaIcEEES5_EvT_S7_RSaIT0_E
	.cfi_endproc
                                        # -- End function
	.section	.text._ZNSt12_Vector_baseINSt7__cxx1112basic_stringIcSt11char_traitsIcESaIcEEESaIS5_EE19_M_get_Tp_allocatorEv,"axG",@progbits,_ZNSt12_Vector_baseINSt7__cxx1112basic_stringIcSt11char_traitsIcESaIcEEESaIS5_EE19_M_get_Tp_allocatorEv,comdat
	.weak	_ZNSt12_Vector_baseINSt7__cxx1112basic_stringIcSt11char_traitsIcESaIcEEESaIS5_EE19_M_get_Tp_allocatorEv # -- Begin function _ZNSt12_Vector_baseINSt7__cxx1112basic_stringIcSt11char_traitsIcESaIcEEESaIS5_EE19_M_get_Tp_allocatorEv
	.p2align	4, 0x90
	.type	_ZNSt12_Vector_baseINSt7__cxx1112basic_stringIcSt11char_traitsIcESaIcEEESaIS5_EE19_M_get_Tp_allocatorEv,@function
_ZNSt12_Vector_baseINSt7__cxx1112basic_stringIcSt11char_traitsIcESaIcEEESaIS5_EE19_M_get_Tp_allocatorEv: # @_ZNSt12_Vector_baseINSt7__cxx1112basic_stringIcSt11char_traitsIcESaIcEEESaIS5_EE19_M_get_Tp_allocatorEv
	.cfi_startproc
# %bb.0:
	pushq	%rbp
	.cfi_def_cfa_offset 16
	.cfi_offset %rbp, -16
	movq	%rsp, %rbp
	.cfi_def_cfa_register %rbp
	movq	%rdi, -8(%rbp)
	movq	-8(%rbp), %rax
	popq	%rbp
	.cfi_def_cfa %rsp, 8
	retq
.Lfunc_end16:
	.size	_ZNSt12_Vector_baseINSt7__cxx1112basic_stringIcSt11char_traitsIcESaIcEEESaIS5_EE19_M_get_Tp_allocatorEv, .Lfunc_end16-_ZNSt12_Vector_baseINSt7__cxx1112basic_stringIcSt11char_traitsIcESaIcEEESaIS5_EE19_M_get_Tp_allocatorEv
	.cfi_endproc
                                        # -- End function
	.section	.text._ZNSt12_Vector_baseINSt7__cxx1112basic_stringIcSt11char_traitsIcESaIcEEESaIS5_EED2Ev,"axG",@progbits,_ZNSt12_Vector_baseINSt7__cxx1112basic_stringIcSt11char_traitsIcESaIcEEESaIS5_EED2Ev,comdat
	.weak	_ZNSt12_Vector_baseINSt7__cxx1112basic_stringIcSt11char_traitsIcESaIcEEESaIS5_EED2Ev # -- Begin function _ZNSt12_Vector_baseINSt7__cxx1112basic_stringIcSt11char_traitsIcESaIcEEESaIS5_EED2Ev
	.p2align	4, 0x90
	.type	_ZNSt12_Vector_baseINSt7__cxx1112basic_stringIcSt11char_traitsIcESaIcEEESaIS5_EED2Ev,@function
_ZNSt12_Vector_baseINSt7__cxx1112basic_stringIcSt11char_traitsIcESaIcEEESaIS5_EED2Ev: # @_ZNSt12_Vector_baseINSt7__cxx1112basic_stringIcSt11char_traitsIcESaIcEEESaIS5_EED2Ev
.Lfunc_begin4:
	.cfi_startproc
	.cfi_personality 155, DW.ref.__gxx_personality_v0
	.cfi_lsda 27, .Lexception4
# %bb.0:
	pushq	%rbp
	.cfi_def_cfa_offset 16
	.cfi_offset %rbp, -16
	movq	%rsp, %rbp
	.cfi_def_cfa_register %rbp
	subq	$32, %rsp
	movq	%rdi, -8(%rbp)
	movq	-8(%rbp), %rax
	movq	(%rax), %rcx
	movq	16(%rax), %rdx
	subq	%rcx, %rdx
	sarq	$5, %rdx
.Ltmp29:
	movq	%rax, %rdi
	movq	%rcx, %rsi
	movq	%rax, -32(%rbp)                 # 8-byte Spill
	callq	_ZNSt12_Vector_baseINSt7__cxx1112basic_stringIcSt11char_traitsIcESaIcEEESaIS5_EE13_M_deallocateEPS5_m
.Ltmp30:
	jmp	.LBB17_1
.LBB17_1:
	movq	-32(%rbp), %rdi                 # 8-byte Reload
	callq	_ZNSt12_Vector_baseINSt7__cxx1112basic_stringIcSt11char_traitsIcESaIcEEESaIS5_EE12_Vector_implD2Ev
	addq	$32, %rsp
	popq	%rbp
	.cfi_def_cfa %rsp, 8
	retq
.LBB17_2:
	.cfi_def_cfa %rbp, 16
.Ltmp31:
                                        # kill: def $edx killed $edx killed $rdx
	movq	%rax, -16(%rbp)
	movl	%edx, -20(%rbp)
	movq	-32(%rbp), %rdi                 # 8-byte Reload
	callq	_ZNSt12_Vector_baseINSt7__cxx1112basic_stringIcSt11char_traitsIcESaIcEEESaIS5_EE12_Vector_implD2Ev
# %bb.3:
	movq	-16(%rbp), %rdi
	callq	__clang_call_terminate
.Lfunc_end17:
	.size	_ZNSt12_Vector_baseINSt7__cxx1112basic_stringIcSt11char_traitsIcESaIcEEESaIS5_EED2Ev, .Lfunc_end17-_ZNSt12_Vector_baseINSt7__cxx1112basic_stringIcSt11char_traitsIcESaIcEEESaIS5_EED2Ev
	.cfi_endproc
	.section	.gcc_except_table,"a",@progbits
	.p2align	2
GCC_except_table17:
.Lexception4:
	.byte	255                             # @LPStart Encoding = omit
	.byte	156                             # @TType Encoding = indirect pcrel sdata8
	.uleb128 .Lttbase1-.Lttbaseref1
.Lttbaseref1:
	.byte	1                               # Call site Encoding = uleb128
	.uleb128 .Lcst_end4-.Lcst_begin4
.Lcst_begin4:
	.uleb128 .Ltmp29-.Lfunc_begin4          # >> Call Site 1 <<
	.uleb128 .Ltmp30-.Ltmp29                #   Call between .Ltmp29 and .Ltmp30
	.uleb128 .Ltmp31-.Lfunc_begin4          #     jumps to .Ltmp31
	.byte	1                               #   On action: 1
.Lcst_end4:
	.byte	1                               # >> Action Record 1 <<
                                        #   Catch TypeInfo 1
	.byte	0                               #   No further actions
	.p2align	2
                                        # >> Catch TypeInfos <<
	.quad	0                               # TypeInfo 1
.Lttbase1:
	.p2align	2
                                        # -- End function
	.section	.text.__clang_call_terminate,"axG",@progbits,__clang_call_terminate,comdat
	.hidden	__clang_call_terminate          # -- Begin function __clang_call_terminate
	.weak	__clang_call_terminate
	.p2align	4, 0x90
	.type	__clang_call_terminate,@function
__clang_call_terminate:                 # @__clang_call_terminate
# %bb.0:
	pushq	%rax
	callq	__cxa_begin_catch@PLT
	movq	%rax, (%rsp)                    # 8-byte Spill
	callq	_ZSt9terminatev@PLT
.Lfunc_end18:
	.size	__clang_call_terminate, .Lfunc_end18-__clang_call_terminate
                                        # -- End function
	.section	.text._ZSt8_DestroyIPNSt7__cxx1112basic_stringIcSt11char_traitsIcESaIcEEEEvT_S7_,"axG",@progbits,_ZSt8_DestroyIPNSt7__cxx1112basic_stringIcSt11char_traitsIcESaIcEEEEvT_S7_,comdat
	.weak	_ZSt8_DestroyIPNSt7__cxx1112basic_stringIcSt11char_traitsIcESaIcEEEEvT_S7_ # -- Begin function _ZSt8_DestroyIPNSt7__cxx1112basic_stringIcSt11char_traitsIcESaIcEEEEvT_S7_
	.p2align	4, 0x90
	.type	_ZSt8_DestroyIPNSt7__cxx1112basic_stringIcSt11char_traitsIcESaIcEEEEvT_S7_,@function
_ZSt8_DestroyIPNSt7__cxx1112basic_stringIcSt11char_traitsIcESaIcEEEEvT_S7_: # @_ZSt8_DestroyIPNSt7__cxx1112basic_stringIcSt11char_traitsIcESaIcEEEEvT_S7_
	.cfi_startproc
# %bb.0:
	pushq	%rbp
	.cfi_def_cfa_offset 16
	.cfi_offset %rbp, -16
	movq	%rsp, %rbp
	.cfi_def_cfa_register %rbp
	subq	$16, %rsp
	movq	%rdi, -8(%rbp)
	movq	%rsi, -16(%rbp)
	movq	-8(%rbp), %rdi
	movq	-16(%rbp), %rsi
	callq	_ZNSt12_Destroy_auxILb0EE9__destroyIPNSt7__cxx1112basic_stringIcSt11char_traitsIcESaIcEEEEEvT_S9_
	addq	$16, %rsp
	popq	%rbp
	.cfi_def_cfa %rsp, 8
	retq
.Lfunc_end19:
	.size	_ZSt8_DestroyIPNSt7__cxx1112basic_stringIcSt11char_traitsIcESaIcEEEEvT_S7_, .Lfunc_end19-_ZSt8_DestroyIPNSt7__cxx1112basic_stringIcSt11char_traitsIcESaIcEEEEvT_S7_
	.cfi_endproc
                                        # -- End function
	.section	.text._ZNSt12_Destroy_auxILb0EE9__destroyIPNSt7__cxx1112basic_stringIcSt11char_traitsIcESaIcEEEEEvT_S9_,"axG",@progbits,_ZNSt12_Destroy_auxILb0EE9__destroyIPNSt7__cxx1112basic_stringIcSt11char_traitsIcESaIcEEEEEvT_S9_,comdat
	.weak	_ZNSt12_Destroy_auxILb0EE9__destroyIPNSt7__cxx1112basic_stringIcSt11char_traitsIcESaIcEEEEEvT_S9_ # -- Begin function _ZNSt12_Destroy_auxILb0EE9__destroyIPNSt7__cxx1112basic_stringIcSt11char_traitsIcESaIcEEEEEvT_S9_
	.p2align	4, 0x90
	.type	_ZNSt12_Destroy_auxILb0EE9__destroyIPNSt7__cxx1112basic_stringIcSt11char_traitsIcESaIcEEEEEvT_S9_,@function
_ZNSt12_Destroy_auxILb0EE9__destroyIPNSt7__cxx1112basic_stringIcSt11char_traitsIcESaIcEEEEEvT_S9_: # @_ZNSt12_Destroy_auxILb0EE9__destroyIPNSt7__cxx1112basic_stringIcSt11char_traitsIcESaIcEEEEEvT_S9_
	.cfi_startproc
# %bb.0:
	pushq	%rbp
	.cfi_def_cfa_offset 16
	.cfi_offset %rbp, -16
	movq	%rsp, %rbp
	.cfi_def_cfa_register %rbp
	subq	$16, %rsp
	movq	%rdi, -8(%rbp)
	movq	%rsi, -16(%rbp)
.LBB20_1:                               # =>This Inner Loop Header: Depth=1
	movq	-8(%rbp), %rax
	cmpq	-16(%rbp), %rax
	je	.LBB20_4
# %bb.2:                                #   in Loop: Header=BB20_1 Depth=1
	movq	-8(%rbp), %rdi
	callq	_ZSt11__addressofINSt7__cxx1112basic_stringIcSt11char_traitsIcESaIcEEEEPT_RS6_
	movq	%rax, %rdi
	callq	_ZSt8_DestroyINSt7__cxx1112basic_stringIcSt11char_traitsIcESaIcEEEEvPT_
# %bb.3:                                #   in Loop: Header=BB20_1 Depth=1
	movq	-8(%rbp), %rax
	addq	$32, %rax
	movq	%rax, -8(%rbp)
	jmp	.LBB20_1
.LBB20_4:
	addq	$16, %rsp
	popq	%rbp
	.cfi_def_cfa %rsp, 8
	retq
.Lfunc_end20:
	.size	_ZNSt12_Destroy_auxILb0EE9__destroyIPNSt7__cxx1112basic_stringIcSt11char_traitsIcESaIcEEEEEvT_S9_, .Lfunc_end20-_ZNSt12_Destroy_auxILb0EE9__destroyIPNSt7__cxx1112basic_stringIcSt11char_traitsIcESaIcEEEEEvT_S9_
	.cfi_endproc
                                        # -- End function
	.section	.text._ZSt8_DestroyINSt7__cxx1112basic_stringIcSt11char_traitsIcESaIcEEEEvPT_,"axG",@progbits,_ZSt8_DestroyINSt7__cxx1112basic_stringIcSt11char_traitsIcESaIcEEEEvPT_,comdat
	.weak	_ZSt8_DestroyINSt7__cxx1112basic_stringIcSt11char_traitsIcESaIcEEEEvPT_ # -- Begin function _ZSt8_DestroyINSt7__cxx1112basic_stringIcSt11char_traitsIcESaIcEEEEvPT_
	.p2align	4, 0x90
	.type	_ZSt8_DestroyINSt7__cxx1112basic_stringIcSt11char_traitsIcESaIcEEEEvPT_,@function
_ZSt8_DestroyINSt7__cxx1112basic_stringIcSt11char_traitsIcESaIcEEEEvPT_: # @_ZSt8_DestroyINSt7__cxx1112basic_stringIcSt11char_traitsIcESaIcEEEEvPT_
	.cfi_startproc
# %bb.0:
	pushq	%rbp
	.cfi_def_cfa_offset 16
	.cfi_offset %rbp, -16
	movq	%rsp, %rbp
	.cfi_def_cfa_register %rbp
	subq	$16, %rsp
	movq	%rdi, -8(%rbp)
	movq	-8(%rbp), %rdi
	callq	_ZNSt7__cxx1112basic_stringIcSt11char_traitsIcESaIcEED1Ev@PLT
	addq	$16, %rsp
	popq	%rbp
	.cfi_def_cfa %rsp, 8
	retq
.Lfunc_end21:
	.size	_ZSt8_DestroyINSt7__cxx1112basic_stringIcSt11char_traitsIcESaIcEEEEvPT_, .Lfunc_end21-_ZSt8_DestroyINSt7__cxx1112basic_stringIcSt11char_traitsIcESaIcEEEEvPT_
	.cfi_endproc
                                        # -- End function
	.section	.text._ZSt11__addressofINSt7__cxx1112basic_stringIcSt11char_traitsIcESaIcEEEEPT_RS6_,"axG",@progbits,_ZSt11__addressofINSt7__cxx1112basic_stringIcSt11char_traitsIcESaIcEEEEPT_RS6_,comdat
	.weak	_ZSt11__addressofINSt7__cxx1112basic_stringIcSt11char_traitsIcESaIcEEEEPT_RS6_ # -- Begin function _ZSt11__addressofINSt7__cxx1112basic_stringIcSt11char_traitsIcESaIcEEEEPT_RS6_
	.p2align	4, 0x90
	.type	_ZSt11__addressofINSt7__cxx1112basic_stringIcSt11char_traitsIcESaIcEEEEPT_RS6_,@function
_ZSt11__addressofINSt7__cxx1112basic_stringIcSt11char_traitsIcESaIcEEEEPT_RS6_: # @_ZSt11__addressofINSt7__cxx1112basic_stringIcSt11char_traitsIcESaIcEEEEPT_RS6_
	.cfi_startproc
# %bb.0:
	pushq	%rbp
	.cfi_def_cfa_offset 16
	.cfi_offset %rbp, -16
	movq	%rsp, %rbp
	.cfi_def_cfa_register %rbp
	movq	%rdi, -8(%rbp)
	movq	-8(%rbp), %rax
	popq	%rbp
	.cfi_def_cfa %rsp, 8
	retq
.Lfunc_end22:
	.size	_ZSt11__addressofINSt7__cxx1112basic_stringIcSt11char_traitsIcESaIcEEEEPT_RS6_, .Lfunc_end22-_ZSt11__addressofINSt7__cxx1112basic_stringIcSt11char_traitsIcESaIcEEEEPT_RS6_
	.cfi_endproc
                                        # -- End function
	.section	.text._ZNSt12_Vector_baseINSt7__cxx1112basic_stringIcSt11char_traitsIcESaIcEEESaIS5_EE13_M_deallocateEPS5_m,"axG",@progbits,_ZNSt12_Vector_baseINSt7__cxx1112basic_stringIcSt11char_traitsIcESaIcEEESaIS5_EE13_M_deallocateEPS5_m,comdat
	.weak	_ZNSt12_Vector_baseINSt7__cxx1112basic_stringIcSt11char_traitsIcESaIcEEESaIS5_EE13_M_deallocateEPS5_m # -- Begin function _ZNSt12_Vector_baseINSt7__cxx1112basic_stringIcSt11char_traitsIcESaIcEEESaIS5_EE13_M_deallocateEPS5_m
	.p2align	4, 0x90
	.type	_ZNSt12_Vector_baseINSt7__cxx1112basic_stringIcSt11char_traitsIcESaIcEEESaIS5_EE13_M_deallocateEPS5_m,@function
_ZNSt12_Vector_baseINSt7__cxx1112basic_stringIcSt11char_traitsIcESaIcEEESaIS5_EE13_M_deallocateEPS5_m: # @_ZNSt12_Vector_baseINSt7__cxx1112basic_stringIcSt11char_traitsIcESaIcEEESaIS5_EE13_M_deallocateEPS5_m
	.cfi_startproc
# %bb.0:
	pushq	%rbp
	.cfi_def_cfa_offset 16
	.cfi_offset %rbp, -16
	movq	%rsp, %rbp
	.cfi_def_cfa_register %rbp
	subq	$32, %rsp
	movq	%rdi, -8(%rbp)
	movq	%rsi, -16(%rbp)
	movq	%rdx, -24(%rbp)
	movq	-8(%rbp), %rax
	cmpq	$0, -16(%rbp)
	movq	%rax, -32(%rbp)                 # 8-byte Spill
	je	.LBB23_2
# %bb.1:
	movq	-32(%rbp), %rax                 # 8-byte Reload
	movq	-16(%rbp), %rsi
	movq	-24(%rbp), %rdx
	movq	%rax, %rdi
	callq	_ZNSt16allocator_traitsISaINSt7__cxx1112basic_stringIcSt11char_traitsIcESaIcEEEEE10deallocateERS6_PS5_m
.LBB23_2:
	addq	$32, %rsp
	popq	%rbp
	.cfi_def_cfa %rsp, 8
	retq
.Lfunc_end23:
	.size	_ZNSt12_Vector_baseINSt7__cxx1112basic_stringIcSt11char_traitsIcESaIcEEESaIS5_EE13_M_deallocateEPS5_m, .Lfunc_end23-_ZNSt12_Vector_baseINSt7__cxx1112basic_stringIcSt11char_traitsIcESaIcEEESaIS5_EE13_M_deallocateEPS5_m
	.cfi_endproc
                                        # -- End function
	.section	.text._ZNSt12_Vector_baseINSt7__cxx1112basic_stringIcSt11char_traitsIcESaIcEEESaIS5_EE12_Vector_implD2Ev,"axG",@progbits,_ZNSt12_Vector_baseINSt7__cxx1112basic_stringIcSt11char_traitsIcESaIcEEESaIS5_EE12_Vector_implD2Ev,comdat
	.weak	_ZNSt12_Vector_baseINSt7__cxx1112basic_stringIcSt11char_traitsIcESaIcEEESaIS5_EE12_Vector_implD2Ev # -- Begin function _ZNSt12_Vector_baseINSt7__cxx1112basic_stringIcSt11char_traitsIcESaIcEEESaIS5_EE12_Vector_implD2Ev
	.p2align	4, 0x90
	.type	_ZNSt12_Vector_baseINSt7__cxx1112basic_stringIcSt11char_traitsIcESaIcEEESaIS5_EE12_Vector_implD2Ev,@function
_ZNSt12_Vector_baseINSt7__cxx1112basic_stringIcSt11char_traitsIcESaIcEEESaIS5_EE12_Vector_implD2Ev: # @_ZNSt12_Vector_baseINSt7__cxx1112basic_stringIcSt11char_traitsIcESaIcEEESaIS5_EE12_Vector_implD2Ev
	.cfi_startproc
# %bb.0:
	pushq	%rbp
	.cfi_def_cfa_offset 16
	.cfi_offset %rbp, -16
	movq	%rsp, %rbp
	.cfi_def_cfa_register %rbp
	subq	$16, %rsp
	movq	%rdi, -8(%rbp)
	movq	-8(%rbp), %rax
	movq	%rax, %rdi
	callq	_ZNSaINSt7__cxx1112basic_stringIcSt11char_traitsIcESaIcEEEED2Ev
	addq	$16, %rsp
	popq	%rbp
	.cfi_def_cfa %rsp, 8
	retq
.Lfunc_end24:
	.size	_ZNSt12_Vector_baseINSt7__cxx1112basic_stringIcSt11char_traitsIcESaIcEEESaIS5_EE12_Vector_implD2Ev, .Lfunc_end24-_ZNSt12_Vector_baseINSt7__cxx1112basic_stringIcSt11char_traitsIcESaIcEEESaIS5_EE12_Vector_implD2Ev
	.cfi_endproc
                                        # -- End function
	.section	.text._ZNSt16allocator_traitsISaINSt7__cxx1112basic_stringIcSt11char_traitsIcESaIcEEEEE10deallocateERS6_PS5_m,"axG",@progbits,_ZNSt16allocator_traitsISaINSt7__cxx1112basic_stringIcSt11char_traitsIcESaIcEEEEE10deallocateERS6_PS5_m,comdat
	.weak	_ZNSt16allocator_traitsISaINSt7__cxx1112basic_stringIcSt11char_traitsIcESaIcEEEEE10deallocateERS6_PS5_m # -- Begin function _ZNSt16allocator_traitsISaINSt7__cxx1112basic_stringIcSt11char_traitsIcESaIcEEEEE10deallocateERS6_PS5_m
	.p2align	4, 0x90
	.type	_ZNSt16allocator_traitsISaINSt7__cxx1112basic_stringIcSt11char_traitsIcESaIcEEEEE10deallocateERS6_PS5_m,@function
_ZNSt16allocator_traitsISaINSt7__cxx1112basic_stringIcSt11char_traitsIcESaIcEEEEE10deallocateERS6_PS5_m: # @_ZNSt16allocator_traitsISaINSt7__cxx1112basic_stringIcSt11char_traitsIcESaIcEEEEE10deallocateERS6_PS5_m
	.cfi_startproc
# %bb.0:
	pushq	%rbp
	.cfi_def_cfa_offset 16
	.cfi_offset %rbp, -16
	movq	%rsp, %rbp
	.cfi_def_cfa_register %rbp
	subq	$32, %rsp
	movq	%rdi, -8(%rbp)
	movq	%rsi, -16(%rbp)
	movq	%rdx, -24(%rbp)
	movq	-8(%rbp), %rax
	movq	-16(%rbp), %rsi
	movq	-24(%rbp), %rdx
	movq	%rax, %rdi
	callq	_ZN9__gnu_cxx13new_allocatorINSt7__cxx1112basic_stringIcSt11char_traitsIcESaIcEEEE10deallocateEPS6_m
	addq	$32, %rsp
	popq	%rbp
	.cfi_def_cfa %rsp, 8
	retq
.Lfunc_end25:
	.size	_ZNSt16allocator_traitsISaINSt7__cxx1112basic_stringIcSt11char_traitsIcESaIcEEEEE10deallocateERS6_PS5_m, .Lfunc_end25-_ZNSt16allocator_traitsISaINSt7__cxx1112basic_stringIcSt11char_traitsIcESaIcEEEEE10deallocateERS6_PS5_m
	.cfi_endproc
                                        # -- End function
	.section	.text._ZN9__gnu_cxx13new_allocatorINSt7__cxx1112basic_stringIcSt11char_traitsIcESaIcEEEE10deallocateEPS6_m,"axG",@progbits,_ZN9__gnu_cxx13new_allocatorINSt7__cxx1112basic_stringIcSt11char_traitsIcESaIcEEEE10deallocateEPS6_m,comdat
	.weak	_ZN9__gnu_cxx13new_allocatorINSt7__cxx1112basic_stringIcSt11char_traitsIcESaIcEEEE10deallocateEPS6_m # -- Begin function _ZN9__gnu_cxx13new_allocatorINSt7__cxx1112basic_stringIcSt11char_traitsIcESaIcEEEE10deallocateEPS6_m
	.p2align	4, 0x90
	.type	_ZN9__gnu_cxx13new_allocatorINSt7__cxx1112basic_stringIcSt11char_traitsIcESaIcEEEE10deallocateEPS6_m,@function
_ZN9__gnu_cxx13new_allocatorINSt7__cxx1112basic_stringIcSt11char_traitsIcESaIcEEEE10deallocateEPS6_m: # @_ZN9__gnu_cxx13new_allocatorINSt7__cxx1112basic_stringIcSt11char_traitsIcESaIcEEEE10deallocateEPS6_m
	.cfi_startproc
# %bb.0:
	pushq	%rbp
	.cfi_def_cfa_offset 16
	.cfi_offset %rbp, -16
	movq	%rsp, %rbp
	.cfi_def_cfa_register %rbp
	subq	$32, %rsp
	movq	%rdi, -8(%rbp)
	movq	%rsi, -16(%rbp)
	movq	%rdx, -24(%rbp)
	movq	-16(%rbp), %rax
	movq	%rax, %rdi
	callq	_ZdlPv@PLT
	addq	$32, %rsp
	popq	%rbp
	.cfi_def_cfa %rsp, 8
	retq
.Lfunc_end26:
	.size	_ZN9__gnu_cxx13new_allocatorINSt7__cxx1112basic_stringIcSt11char_traitsIcESaIcEEEE10deallocateEPS6_m, .Lfunc_end26-_ZN9__gnu_cxx13new_allocatorINSt7__cxx1112basic_stringIcSt11char_traitsIcESaIcEEEE10deallocateEPS6_m
	.cfi_endproc
                                        # -- End function
	.section	.text._ZNSaINSt7__cxx1112basic_stringIcSt11char_traitsIcESaIcEEEED2Ev,"axG",@progbits,_ZNSaINSt7__cxx1112basic_stringIcSt11char_traitsIcESaIcEEEED2Ev,comdat
	.weak	_ZNSaINSt7__cxx1112basic_stringIcSt11char_traitsIcESaIcEEEED2Ev # -- Begin function _ZNSaINSt7__cxx1112basic_stringIcSt11char_traitsIcESaIcEEEED2Ev
	.p2align	4, 0x90
	.type	_ZNSaINSt7__cxx1112basic_stringIcSt11char_traitsIcESaIcEEEED2Ev,@function
_ZNSaINSt7__cxx1112basic_stringIcSt11char_traitsIcESaIcEEEED2Ev: # @_ZNSaINSt7__cxx1112basic_stringIcSt11char_traitsIcESaIcEEEED2Ev
	.cfi_startproc
# %bb.0:
	pushq	%rbp
	.cfi_def_cfa_offset 16
	.cfi_offset %rbp, -16
	movq	%rsp, %rbp
	.cfi_def_cfa_register %rbp
	subq	$16, %rsp
	movq	%rdi, -8(%rbp)
	movq	-8(%rbp), %rax
	movq	%rax, %rdi
	callq	_ZN9__gnu_cxx13new_allocatorINSt7__cxx1112basic_stringIcSt11char_traitsIcESaIcEEEED2Ev
	addq	$16, %rsp
	popq	%rbp
	.cfi_def_cfa %rsp, 8
	retq
.Lfunc_end27:
	.size	_ZNSaINSt7__cxx1112basic_stringIcSt11char_traitsIcESaIcEEEED2Ev, .Lfunc_end27-_ZNSaINSt7__cxx1112basic_stringIcSt11char_traitsIcESaIcEEEED2Ev
	.cfi_endproc
                                        # -- End function
	.section	.text._ZN9__gnu_cxx13new_allocatorINSt7__cxx1112basic_stringIcSt11char_traitsIcESaIcEEEED2Ev,"axG",@progbits,_ZN9__gnu_cxx13new_allocatorINSt7__cxx1112basic_stringIcSt11char_traitsIcESaIcEEEED2Ev,comdat
	.weak	_ZN9__gnu_cxx13new_allocatorINSt7__cxx1112basic_stringIcSt11char_traitsIcESaIcEEEED2Ev # -- Begin function _ZN9__gnu_cxx13new_allocatorINSt7__cxx1112basic_stringIcSt11char_traitsIcESaIcEEEED2Ev
	.p2align	4, 0x90
	.type	_ZN9__gnu_cxx13new_allocatorINSt7__cxx1112basic_stringIcSt11char_traitsIcESaIcEEEED2Ev,@function
_ZN9__gnu_cxx13new_allocatorINSt7__cxx1112basic_stringIcSt11char_traitsIcESaIcEEEED2Ev: # @_ZN9__gnu_cxx13new_allocatorINSt7__cxx1112basic_stringIcSt11char_traitsIcESaIcEEEED2Ev
	.cfi_startproc
# %bb.0:
	pushq	%rbp
	.cfi_def_cfa_offset 16
	.cfi_offset %rbp, -16
	movq	%rsp, %rbp
	.cfi_def_cfa_register %rbp
	movq	%rdi, -8(%rbp)
	popq	%rbp
	.cfi_def_cfa %rsp, 8
	retq
.Lfunc_end28:
	.size	_ZN9__gnu_cxx13new_allocatorINSt7__cxx1112basic_stringIcSt11char_traitsIcESaIcEEEED2Ev, .Lfunc_end28-_ZN9__gnu_cxx13new_allocatorINSt7__cxx1112basic_stringIcSt11char_traitsIcESaIcEEEED2Ev
	.cfi_endproc
                                        # -- End function
	.section	.text._ZSt11__addressofISiEPT_RS0_,"axG",@progbits,_ZSt11__addressofISiEPT_RS0_,comdat
	.weak	_ZSt11__addressofISiEPT_RS0_    # -- Begin function _ZSt11__addressofISiEPT_RS0_
	.p2align	4, 0x90
	.type	_ZSt11__addressofISiEPT_RS0_,@function
_ZSt11__addressofISiEPT_RS0_:           # @_ZSt11__addressofISiEPT_RS0_
	.cfi_startproc
# %bb.0:
	pushq	%rbp
	.cfi_def_cfa_offset 16
	.cfi_offset %rbp, -16
	movq	%rsp, %rbp
	.cfi_def_cfa_register %rbp
	movq	%rdi, -8(%rbp)
	movq	-8(%rbp), %rax
	popq	%rbp
	.cfi_def_cfa %rsp, 8
	retq
.Lfunc_end29:
	.size	_ZSt11__addressofISiEPT_RS0_, .Lfunc_end29-_ZSt11__addressofISiEPT_RS0_
	.cfi_endproc
                                        # -- End function
	.section	.text._ZNSt16istream_iteratorINSt7__cxx1112basic_stringIcSt11char_traitsIcESaIcEEEcS3_lE7_M_readEv,"axG",@progbits,_ZNSt16istream_iteratorINSt7__cxx1112basic_stringIcSt11char_traitsIcESaIcEEEcS3_lE7_M_readEv,comdat
	.weak	_ZNSt16istream_iteratorINSt7__cxx1112basic_stringIcSt11char_traitsIcESaIcEEEcS3_lE7_M_readEv # -- Begin function _ZNSt16istream_iteratorINSt7__cxx1112basic_stringIcSt11char_traitsIcESaIcEEEcS3_lE7_M_readEv
	.p2align	4, 0x90
	.type	_ZNSt16istream_iteratorINSt7__cxx1112basic_stringIcSt11char_traitsIcESaIcEEEcS3_lE7_M_readEv,@function
_ZNSt16istream_iteratorINSt7__cxx1112basic_stringIcSt11char_traitsIcESaIcEEEcS3_lE7_M_readEv: # @_ZNSt16istream_iteratorINSt7__cxx1112basic_stringIcSt11char_traitsIcESaIcEEEcS3_lE7_M_readEv
	.cfi_startproc
# %bb.0:
	pushq	%rbp
	.cfi_def_cfa_offset 16
	.cfi_offset %rbp, -16
	movq	%rsp, %rbp
	.cfi_def_cfa_register %rbp
	subq	$16, %rsp
	movq	%rdi, -8(%rbp)
	movq	-8(%rbp), %rax
	cmpq	$0, (%rax)
	movq	%rax, -16(%rbp)                 # 8-byte Spill
	je	.LBB30_3
# %bb.1:
	movq	-16(%rbp), %rax                 # 8-byte Reload
	movq	(%rax), %rdi
	addq	$8, %rax
	movq	%rax, %rsi
	callq	_ZStrsIcSt11char_traitsIcESaIcEERSt13basic_istreamIT_T0_ES7_RNSt7__cxx1112basic_stringIS4_S5_T1_EE@PLT
	movq	(%rax), %rcx
	movq	-24(%rcx), %rcx
	addq	%rcx, %rax
	movq	%rax, %rdi
	callq	_ZNKSt9basic_iosIcSt11char_traitsIcEEntEv@PLT
	testb	$1, %al
	jne	.LBB30_2
	jmp	.LBB30_3
.LBB30_2:
	movq	-16(%rbp), %rax                 # 8-byte Reload
	movq	$0, (%rax)
	movb	$0, 40(%rax)
.LBB30_3:
	addq	$16, %rsp
	popq	%rbp
	.cfi_def_cfa %rsp, 8
	retq
.Lfunc_end30:
	.size	_ZNSt16istream_iteratorINSt7__cxx1112basic_stringIcSt11char_traitsIcESaIcEEEcS3_lE7_M_readEv, .Lfunc_end30-_ZNSt16istream_iteratorINSt7__cxx1112basic_stringIcSt11char_traitsIcESaIcEEEcS3_lE7_M_readEv
	.cfi_endproc
                                        # -- End function
	.section	.text._ZNSt20back_insert_iteratorISt6vectorINSt7__cxx1112basic_stringIcSt11char_traitsIcESaIcEEESaIS6_EEEC2ERS8_,"axG",@progbits,_ZNSt20back_insert_iteratorISt6vectorINSt7__cxx1112basic_stringIcSt11char_traitsIcESaIcEEESaIS6_EEEC2ERS8_,comdat
	.weak	_ZNSt20back_insert_iteratorISt6vectorINSt7__cxx1112basic_stringIcSt11char_traitsIcESaIcEEESaIS6_EEEC2ERS8_ # -- Begin function _ZNSt20back_insert_iteratorISt6vectorINSt7__cxx1112basic_stringIcSt11char_traitsIcESaIcEEESaIS6_EEEC2ERS8_
	.p2align	4, 0x90
	.type	_ZNSt20back_insert_iteratorISt6vectorINSt7__cxx1112basic_stringIcSt11char_traitsIcESaIcEEESaIS6_EEEC2ERS8_,@function
_ZNSt20back_insert_iteratorISt6vectorINSt7__cxx1112basic_stringIcSt11char_traitsIcESaIcEEESaIS6_EEEC2ERS8_: # @_ZNSt20back_insert_iteratorISt6vectorINSt7__cxx1112basic_stringIcSt11char_traitsIcESaIcEEESaIS6_EEEC2ERS8_
	.cfi_startproc
# %bb.0:
	pushq	%rbp
	.cfi_def_cfa_offset 16
	.cfi_offset %rbp, -16
	movq	%rsp, %rbp
	.cfi_def_cfa_register %rbp
	subq	$32, %rsp
	movq	%rdi, -8(%rbp)
	movq	%rsi, -16(%rbp)
	movq	-8(%rbp), %rax
	movq	-16(%rbp), %rdi
	movq	%rax, -24(%rbp)                 # 8-byte Spill
	callq	_ZSt11__addressofISt6vectorINSt7__cxx1112basic_stringIcSt11char_traitsIcESaIcEEESaIS6_EEEPT_RS9_
	movq	-24(%rbp), %rcx                 # 8-byte Reload
	movq	%rax, (%rcx)
	addq	$32, %rsp
	popq	%rbp
	.cfi_def_cfa %rsp, 8
	retq
.Lfunc_end31:
	.size	_ZNSt20back_insert_iteratorISt6vectorINSt7__cxx1112basic_stringIcSt11char_traitsIcESaIcEEESaIS6_EEEC2ERS8_, .Lfunc_end31-_ZNSt20back_insert_iteratorISt6vectorINSt7__cxx1112basic_stringIcSt11char_traitsIcESaIcEEESaIS6_EEEC2ERS8_
	.cfi_endproc
                                        # -- End function
	.section	.text._ZSt11__addressofISt6vectorINSt7__cxx1112basic_stringIcSt11char_traitsIcESaIcEEESaIS6_EEEPT_RS9_,"axG",@progbits,_ZSt11__addressofISt6vectorINSt7__cxx1112basic_stringIcSt11char_traitsIcESaIcEEESaIS6_EEEPT_RS9_,comdat
	.weak	_ZSt11__addressofISt6vectorINSt7__cxx1112basic_stringIcSt11char_traitsIcESaIcEEESaIS6_EEEPT_RS9_ # -- Begin function _ZSt11__addressofISt6vectorINSt7__cxx1112basic_stringIcSt11char_traitsIcESaIcEEESaIS6_EEEPT_RS9_
	.p2align	4, 0x90
	.type	_ZSt11__addressofISt6vectorINSt7__cxx1112basic_stringIcSt11char_traitsIcESaIcEEESaIS6_EEEPT_RS9_,@function
_ZSt11__addressofISt6vectorINSt7__cxx1112basic_stringIcSt11char_traitsIcESaIcEEESaIS6_EEEPT_RS9_: # @_ZSt11__addressofISt6vectorINSt7__cxx1112basic_stringIcSt11char_traitsIcESaIcEEESaIS6_EEEPT_RS9_
	.cfi_startproc
# %bb.0:
	pushq	%rbp
	.cfi_def_cfa_offset 16
	.cfi_offset %rbp, -16
	movq	%rsp, %rbp
	.cfi_def_cfa_register %rbp
	movq	%rdi, -8(%rbp)
	movq	-8(%rbp), %rax
	popq	%rbp
	.cfi_def_cfa %rsp, 8
	retq
.Lfunc_end32:
	.size	_ZSt11__addressofISt6vectorINSt7__cxx1112basic_stringIcSt11char_traitsIcESaIcEEESaIS6_EEEPT_RS9_, .Lfunc_end32-_ZSt11__addressofISt6vectorINSt7__cxx1112basic_stringIcSt11char_traitsIcESaIcEEESaIS6_EEEPT_RS9_
	.cfi_endproc
                                        # -- End function
	.section	.text._ZSt13__copy_move_aILb0ESt16istream_iteratorINSt7__cxx1112basic_stringIcSt11char_traitsIcESaIcEEEcS4_lESt20back_insert_iteratorISt6vectorIS6_SaIS6_EEEET1_T0_SE_SD_,"axG",@progbits,_ZSt13__copy_move_aILb0ESt16istream_iteratorINSt7__cxx1112basic_stringIcSt11char_traitsIcESaIcEEEcS4_lESt20back_insert_iteratorISt6vectorIS6_SaIS6_EEEET1_T0_SE_SD_,comdat
	.weak	_ZSt13__copy_move_aILb0ESt16istream_iteratorINSt7__cxx1112basic_stringIcSt11char_traitsIcESaIcEEEcS4_lESt20back_insert_iteratorISt6vectorIS6_SaIS6_EEEET1_T0_SE_SD_ # -- Begin function _ZSt13__copy_move_aILb0ESt16istream_iteratorINSt7__cxx1112basic_stringIcSt11char_traitsIcESaIcEEEcS4_lESt20back_insert_iteratorISt6vectorIS6_SaIS6_EEEET1_T0_SE_SD_
	.p2align	4, 0x90
	.type	_ZSt13__copy_move_aILb0ESt16istream_iteratorINSt7__cxx1112basic_stringIcSt11char_traitsIcESaIcEEEcS4_lESt20back_insert_iteratorISt6vectorIS6_SaIS6_EEEET1_T0_SE_SD_,@function
_ZSt13__copy_move_aILb0ESt16istream_iteratorINSt7__cxx1112basic_stringIcSt11char_traitsIcESaIcEEEcS4_lESt20back_insert_iteratorISt6vectorIS6_SaIS6_EEEET1_T0_SE_SD_: # @_ZSt13__copy_move_aILb0ESt16istream_iteratorINSt7__cxx1112basic_stringIcSt11char_traitsIcESaIcEEEcS4_lESt20back_insert_iteratorISt6vectorIS6_SaIS6_EEEET1_T0_SE_SD_
.Lfunc_begin5:
	.cfi_startproc
	.cfi_personality 155, DW.ref.__gxx_personality_v0
	.cfi_lsda 27, .Lexception5
# %bb.0:
	pushq	%rbp
	.cfi_def_cfa_offset 16
	.cfi_offset %rbp, -16
	movq	%rsp, %rbp
	.cfi_def_cfa_register %rbp
	subq	$304, %rsp                      # imm = 0x130
	movq	%fs:40, %rax
	movq	%rax, -8(%rbp)
	movq	%rdx, -208(%rbp)
	leaq	-104(%rbp), %rax
	movq	%rdi, -264(%rbp)                # 8-byte Spill
	movq	%rax, %rdi
	movq	-264(%rbp), %rcx                # 8-byte Reload
	movq	%rsi, -272(%rbp)                # 8-byte Spill
	movq	%rcx, %rsi
	movq	%rax, -280(%rbp)                # 8-byte Spill
	callq	_ZNSt16istream_iteratorINSt7__cxx1112basic_stringIcSt11char_traitsIcESaIcEEEcS3_lEC2ERKS6_
.Ltmp32:
	leaq	-56(%rbp), %rdi
	movq	-280(%rbp), %rsi                # 8-byte Reload
	callq	_ZSt12__niter_baseISt16istream_iteratorINSt7__cxx1112basic_stringIcSt11char_traitsIcESaIcEEEcS4_lEET_S8_
.Ltmp33:
	jmp	.LBB33_1
.LBB33_1:
.Ltmp35:
	leaq	-200(%rbp), %rdi
	movq	-272(%rbp), %rsi                # 8-byte Reload
	callq	_ZNSt16istream_iteratorINSt7__cxx1112basic_stringIcSt11char_traitsIcESaIcEEEcS3_lEC2ERKS6_
.Ltmp36:
	jmp	.LBB33_2
.LBB33_2:
.Ltmp38:
	leaq	-152(%rbp), %rdi
	leaq	-200(%rbp), %rsi
	callq	_ZSt12__niter_baseISt16istream_iteratorINSt7__cxx1112basic_stringIcSt11char_traitsIcESaIcEEEcS4_lEET_S8_
.Ltmp39:
	jmp	.LBB33_3
.LBB33_3:
	movq	-208(%rbp), %rax
	movq	%rax, -216(%rbp)
	movq	-216(%rbp), %rdi
	callq	_ZSt12__niter_baseISt20back_insert_iteratorISt6vectorINSt7__cxx1112basic_stringIcSt11char_traitsIcESaIcEEESaIS7_EEEET_SB_
	movq	%rax, -256(%rbp)
	movq	-256(%rbp), %rdx
.Ltmp41:
	leaq	-56(%rbp), %rdi
	leaq	-152(%rbp), %rsi
	callq	_ZSt14__copy_move_a1ILb0ESt16istream_iteratorINSt7__cxx1112basic_stringIcSt11char_traitsIcESaIcEEEcS4_lESt20back_insert_iteratorISt6vectorIS6_SaIS6_EEEET1_T0_SE_SD_
.Ltmp42:
	movq	%rax, -288(%rbp)                # 8-byte Spill
	jmp	.LBB33_4
.LBB33_4:
	movq	-288(%rbp), %rax                # 8-byte Reload
	movq	%rax, -232(%rbp)
	movq	-232(%rbp), %rsi
.Ltmp43:
	leaq	-208(%rbp), %rdi
	callq	_ZSt12__niter_wrapISt20back_insert_iteratorISt6vectorINSt7__cxx1112basic_stringIcSt11char_traitsIcESaIcEEESaIS7_EEEET_RKSB_SB_
.Ltmp44:
	movq	%rax, -296(%rbp)                # 8-byte Spill
	jmp	.LBB33_5
.LBB33_5:
	movq	-296(%rbp), %rax                # 8-byte Reload
	movq	%rax, -224(%rbp)
	leaq	-152(%rbp), %rdi
	callq	_ZNSt16istream_iteratorINSt7__cxx1112basic_stringIcSt11char_traitsIcESaIcEEEcS3_lED2Ev
	leaq	-200(%rbp), %rdi
	callq	_ZNSt16istream_iteratorINSt7__cxx1112basic_stringIcSt11char_traitsIcESaIcEEEcS3_lED2Ev
	leaq	-56(%rbp), %rdi
	callq	_ZNSt16istream_iteratorINSt7__cxx1112basic_stringIcSt11char_traitsIcESaIcEEEcS3_lED2Ev
	leaq	-104(%rbp), %rdi
	callq	_ZNSt16istream_iteratorINSt7__cxx1112basic_stringIcSt11char_traitsIcESaIcEEEcS3_lED2Ev
	movq	-224(%rbp), %rax
	movq	%fs:40, %rcx
	movq	-8(%rbp), %rdx
	cmpq	%rdx, %rcx
	movq	%rax, -304(%rbp)                # 8-byte Spill
	jne	.LBB33_15
# %bb.6:
	movq	-304(%rbp), %rax                # 8-byte Reload
	addq	$304, %rsp                      # imm = 0x130
	popq	%rbp
	.cfi_def_cfa %rsp, 8
	retq
.LBB33_7:
	.cfi_def_cfa %rbp, 16
.Ltmp34:
                                        # kill: def $edx killed $edx killed $rdx
	movq	%rax, -240(%rbp)
	movl	%edx, -244(%rbp)
	jmp	.LBB33_13
.LBB33_8:
.Ltmp37:
                                        # kill: def $edx killed $edx killed $rdx
	movq	%rax, -240(%rbp)
	movl	%edx, -244(%rbp)
	jmp	.LBB33_12
.LBB33_9:
.Ltmp40:
                                        # kill: def $edx killed $edx killed $rdx
	movq	%rax, -240(%rbp)
	movl	%edx, -244(%rbp)
	jmp	.LBB33_11
.LBB33_10:
.Ltmp45:
                                        # kill: def $edx killed $edx killed $rdx
	movq	%rax, -240(%rbp)
	movl	%edx, -244(%rbp)
	leaq	-152(%rbp), %rdi
	callq	_ZNSt16istream_iteratorINSt7__cxx1112basic_stringIcSt11char_traitsIcESaIcEEEcS3_lED2Ev
.LBB33_11:
	leaq	-200(%rbp), %rdi
	callq	_ZNSt16istream_iteratorINSt7__cxx1112basic_stringIcSt11char_traitsIcESaIcEEEcS3_lED2Ev
.LBB33_12:
	leaq	-56(%rbp), %rdi
	callq	_ZNSt16istream_iteratorINSt7__cxx1112basic_stringIcSt11char_traitsIcESaIcEEEcS3_lED2Ev
.LBB33_13:
	leaq	-104(%rbp), %rdi
	callq	_ZNSt16istream_iteratorINSt7__cxx1112basic_stringIcSt11char_traitsIcESaIcEEEcS3_lED2Ev
# %bb.14:
	movq	-240(%rbp), %rdi
	callq	_Unwind_Resume@PLT
.LBB33_15:
	callq	__stack_chk_fail@PLT
.Lfunc_end33:
	.size	_ZSt13__copy_move_aILb0ESt16istream_iteratorINSt7__cxx1112basic_stringIcSt11char_traitsIcESaIcEEEcS4_lESt20back_insert_iteratorISt6vectorIS6_SaIS6_EEEET1_T0_SE_SD_, .Lfunc_end33-_ZSt13__copy_move_aILb0ESt16istream_iteratorINSt7__cxx1112basic_stringIcSt11char_traitsIcESaIcEEEcS4_lESt20back_insert_iteratorISt6vectorIS6_SaIS6_EEEET1_T0_SE_SD_
	.cfi_endproc
	.section	.gcc_except_table,"a",@progbits
	.p2align	2
GCC_except_table33:
.Lexception5:
	.byte	255                             # @LPStart Encoding = omit
	.byte	255                             # @TType Encoding = omit
	.byte	1                               # Call site Encoding = uleb128
	.uleb128 .Lcst_end5-.Lcst_begin5
.Lcst_begin5:
	.uleb128 .Lfunc_begin5-.Lfunc_begin5    # >> Call Site 1 <<
	.uleb128 .Ltmp32-.Lfunc_begin5          #   Call between .Lfunc_begin5 and .Ltmp32
	.byte	0                               #     has no landing pad
	.byte	0                               #   On action: cleanup
	.uleb128 .Ltmp32-.Lfunc_begin5          # >> Call Site 2 <<
	.uleb128 .Ltmp33-.Ltmp32                #   Call between .Ltmp32 and .Ltmp33
	.uleb128 .Ltmp34-.Lfunc_begin5          #     jumps to .Ltmp34
	.byte	0                               #   On action: cleanup
	.uleb128 .Ltmp35-.Lfunc_begin5          # >> Call Site 3 <<
	.uleb128 .Ltmp36-.Ltmp35                #   Call between .Ltmp35 and .Ltmp36
	.uleb128 .Ltmp37-.Lfunc_begin5          #     jumps to .Ltmp37
	.byte	0                               #   On action: cleanup
	.uleb128 .Ltmp38-.Lfunc_begin5          # >> Call Site 4 <<
	.uleb128 .Ltmp39-.Ltmp38                #   Call between .Ltmp38 and .Ltmp39
	.uleb128 .Ltmp40-.Lfunc_begin5          #     jumps to .Ltmp40
	.byte	0                               #   On action: cleanup
	.uleb128 .Ltmp41-.Lfunc_begin5          # >> Call Site 5 <<
	.uleb128 .Ltmp44-.Ltmp41                #   Call between .Ltmp41 and .Ltmp44
	.uleb128 .Ltmp45-.Lfunc_begin5          #     jumps to .Ltmp45
	.byte	0                               #   On action: cleanup
	.uleb128 .Ltmp44-.Lfunc_begin5          # >> Call Site 6 <<
	.uleb128 .Lfunc_end33-.Ltmp44           #   Call between .Ltmp44 and .Lfunc_end33
	.byte	0                               #     has no landing pad
	.byte	0                               #   On action: cleanup
.Lcst_end5:
	.p2align	2
                                        # -- End function
	.section	.text._ZSt12__miter_baseISt16istream_iteratorINSt7__cxx1112basic_stringIcSt11char_traitsIcESaIcEEEcS4_lEET_S8_,"axG",@progbits,_ZSt12__miter_baseISt16istream_iteratorINSt7__cxx1112basic_stringIcSt11char_traitsIcESaIcEEEcS4_lEET_S8_,comdat
	.weak	_ZSt12__miter_baseISt16istream_iteratorINSt7__cxx1112basic_stringIcSt11char_traitsIcESaIcEEEcS4_lEET_S8_ # -- Begin function _ZSt12__miter_baseISt16istream_iteratorINSt7__cxx1112basic_stringIcSt11char_traitsIcESaIcEEEcS4_lEET_S8_
	.p2align	4, 0x90
	.type	_ZSt12__miter_baseISt16istream_iteratorINSt7__cxx1112basic_stringIcSt11char_traitsIcESaIcEEEcS4_lEET_S8_,@function
_ZSt12__miter_baseISt16istream_iteratorINSt7__cxx1112basic_stringIcSt11char_traitsIcESaIcEEEcS4_lEET_S8_: # @_ZSt12__miter_baseISt16istream_iteratorINSt7__cxx1112basic_stringIcSt11char_traitsIcESaIcEEEcS4_lEET_S8_
	.cfi_startproc
# %bb.0:
	pushq	%rbp
	.cfi_def_cfa_offset 16
	.cfi_offset %rbp, -16
	movq	%rsp, %rbp
	.cfi_def_cfa_register %rbp
	subq	$16, %rsp
	movq	%rdi, %rax
	movq	%rdi, %rcx
	movq	%rcx, -8(%rbp)
	movq	%rax, -16(%rbp)                 # 8-byte Spill
	callq	_ZNSt16istream_iteratorINSt7__cxx1112basic_stringIcSt11char_traitsIcESaIcEEEcS3_lEC2ERKS6_
	movq	-16(%rbp), %rax                 # 8-byte Reload
	addq	$16, %rsp
	popq	%rbp
	.cfi_def_cfa %rsp, 8
	retq
.Lfunc_end34:
	.size	_ZSt12__miter_baseISt16istream_iteratorINSt7__cxx1112basic_stringIcSt11char_traitsIcESaIcEEEcS4_lEET_S8_, .Lfunc_end34-_ZSt12__miter_baseISt16istream_iteratorINSt7__cxx1112basic_stringIcSt11char_traitsIcESaIcEEEcS4_lEET_S8_
	.cfi_endproc
                                        # -- End function
	.section	.text._ZNSt16istream_iteratorINSt7__cxx1112basic_stringIcSt11char_traitsIcESaIcEEEcS3_lEC2ERKS6_,"axG",@progbits,_ZNSt16istream_iteratorINSt7__cxx1112basic_stringIcSt11char_traitsIcESaIcEEEcS3_lEC2ERKS6_,comdat
	.weak	_ZNSt16istream_iteratorINSt7__cxx1112basic_stringIcSt11char_traitsIcESaIcEEEcS3_lEC2ERKS6_ # -- Begin function _ZNSt16istream_iteratorINSt7__cxx1112basic_stringIcSt11char_traitsIcESaIcEEEcS3_lEC2ERKS6_
	.p2align	4, 0x90
	.type	_ZNSt16istream_iteratorINSt7__cxx1112basic_stringIcSt11char_traitsIcESaIcEEEcS3_lEC2ERKS6_,@function
_ZNSt16istream_iteratorINSt7__cxx1112basic_stringIcSt11char_traitsIcESaIcEEEcS3_lEC2ERKS6_: # @_ZNSt16istream_iteratorINSt7__cxx1112basic_stringIcSt11char_traitsIcESaIcEEEcS3_lEC2ERKS6_
	.cfi_startproc
# %bb.0:
	pushq	%rbp
	.cfi_def_cfa_offset 16
	.cfi_offset %rbp, -16
	movq	%rsp, %rbp
	.cfi_def_cfa_register %rbp
	subq	$32, %rsp
	movq	%rdi, -8(%rbp)
	movq	%rsi, -16(%rbp)
	movq	-8(%rbp), %rax
	movq	-16(%rbp), %rcx
	movq	(%rcx), %rcx
	movq	%rcx, (%rax)
	movq	%rax, %rcx
	addq	$8, %rcx
	movq	-16(%rbp), %rdx
	addq	$8, %rdx
	movq	%rcx, %rdi
	movq	%rdx, %rsi
	movq	%rax, -24(%rbp)                 # 8-byte Spill
	callq	_ZNSt7__cxx1112basic_stringIcSt11char_traitsIcESaIcEEC1ERKS4_@PLT
	movq	-16(%rbp), %rax
	movb	40(%rax), %r8b
	andb	$1, %r8b
	movq	-24(%rbp), %rax                 # 8-byte Reload
	movb	%r8b, 40(%rax)
	addq	$32, %rsp
	popq	%rbp
	.cfi_def_cfa %rsp, 8
	retq
.Lfunc_end35:
	.size	_ZNSt16istream_iteratorINSt7__cxx1112basic_stringIcSt11char_traitsIcESaIcEEEcS3_lEC2ERKS6_, .Lfunc_end35-_ZNSt16istream_iteratorINSt7__cxx1112basic_stringIcSt11char_traitsIcESaIcEEEcS3_lEC2ERKS6_
	.cfi_endproc
                                        # -- End function
	.section	.text._ZSt12__niter_wrapISt20back_insert_iteratorISt6vectorINSt7__cxx1112basic_stringIcSt11char_traitsIcESaIcEEESaIS7_EEEET_RKSB_SB_,"axG",@progbits,_ZSt12__niter_wrapISt20back_insert_iteratorISt6vectorINSt7__cxx1112basic_stringIcSt11char_traitsIcESaIcEEESaIS7_EEEET_RKSB_SB_,comdat
	.weak	_ZSt12__niter_wrapISt20back_insert_iteratorISt6vectorINSt7__cxx1112basic_stringIcSt11char_traitsIcESaIcEEESaIS7_EEEET_RKSB_SB_ # -- Begin function _ZSt12__niter_wrapISt20back_insert_iteratorISt6vectorINSt7__cxx1112basic_stringIcSt11char_traitsIcESaIcEEESaIS7_EEEET_RKSB_SB_
	.p2align	4, 0x90
	.type	_ZSt12__niter_wrapISt20back_insert_iteratorISt6vectorINSt7__cxx1112basic_stringIcSt11char_traitsIcESaIcEEESaIS7_EEEET_RKSB_SB_,@function
_ZSt12__niter_wrapISt20back_insert_iteratorISt6vectorINSt7__cxx1112basic_stringIcSt11char_traitsIcESaIcEEESaIS7_EEEET_RKSB_SB_: # @_ZSt12__niter_wrapISt20back_insert_iteratorISt6vectorINSt7__cxx1112basic_stringIcSt11char_traitsIcESaIcEEESaIS7_EEEET_RKSB_SB_
	.cfi_startproc
# %bb.0:
	pushq	%rbp
	.cfi_def_cfa_offset 16
	.cfi_offset %rbp, -16
	movq	%rsp, %rbp
	.cfi_def_cfa_register %rbp
	subq	$48, %rsp
	movq	%fs:40, %rax
	movq	%rax, -8(%rbp)
	movq	%rsi, -24(%rbp)
	movq	%rdi, -32(%rbp)
	movq	-24(%rbp), %rax
	movq	%rax, -16(%rbp)
	movq	-16(%rbp), %rax
	movq	%fs:40, %rcx
	movq	-8(%rbp), %rdx
	cmpq	%rdx, %rcx
	movq	%rax, -40(%rbp)                 # 8-byte Spill
	jne	.LBB36_2
# %bb.1:
	movq	-40(%rbp), %rax                 # 8-byte Reload
	addq	$48, %rsp
	popq	%rbp
	.cfi_def_cfa %rsp, 8
	retq
.LBB36_2:
	.cfi_def_cfa %rbp, 16
	callq	__stack_chk_fail@PLT
.Lfunc_end36:
	.size	_ZSt12__niter_wrapISt20back_insert_iteratorISt6vectorINSt7__cxx1112basic_stringIcSt11char_traitsIcESaIcEEESaIS7_EEEET_RKSB_SB_, .Lfunc_end36-_ZSt12__niter_wrapISt20back_insert_iteratorISt6vectorINSt7__cxx1112basic_stringIcSt11char_traitsIcESaIcEEESaIS7_EEEET_RKSB_SB_
	.cfi_endproc
                                        # -- End function
	.section	.text._ZSt14__copy_move_a1ILb0ESt16istream_iteratorINSt7__cxx1112basic_stringIcSt11char_traitsIcESaIcEEEcS4_lESt20back_insert_iteratorISt6vectorIS6_SaIS6_EEEET1_T0_SE_SD_,"axG",@progbits,_ZSt14__copy_move_a1ILb0ESt16istream_iteratorINSt7__cxx1112basic_stringIcSt11char_traitsIcESaIcEEEcS4_lESt20back_insert_iteratorISt6vectorIS6_SaIS6_EEEET1_T0_SE_SD_,comdat
	.weak	_ZSt14__copy_move_a1ILb0ESt16istream_iteratorINSt7__cxx1112basic_stringIcSt11char_traitsIcESaIcEEEcS4_lESt20back_insert_iteratorISt6vectorIS6_SaIS6_EEEET1_T0_SE_SD_ # -- Begin function _ZSt14__copy_move_a1ILb0ESt16istream_iteratorINSt7__cxx1112basic_stringIcSt11char_traitsIcESaIcEEEcS4_lESt20back_insert_iteratorISt6vectorIS6_SaIS6_EEEET1_T0_SE_SD_
	.p2align	4, 0x90
	.type	_ZSt14__copy_move_a1ILb0ESt16istream_iteratorINSt7__cxx1112basic_stringIcSt11char_traitsIcESaIcEEEcS4_lESt20back_insert_iteratorISt6vectorIS6_SaIS6_EEEET1_T0_SE_SD_,@function
_ZSt14__copy_move_a1ILb0ESt16istream_iteratorINSt7__cxx1112basic_stringIcSt11char_traitsIcESaIcEEEcS4_lESt20back_insert_iteratorISt6vectorIS6_SaIS6_EEEET1_T0_SE_SD_: # @_ZSt14__copy_move_a1ILb0ESt16istream_iteratorINSt7__cxx1112basic_stringIcSt11char_traitsIcESaIcEEEcS4_lESt20back_insert_iteratorISt6vectorIS6_SaIS6_EEEET1_T0_SE_SD_
.Lfunc_begin6:
	.cfi_startproc
	.cfi_personality 155, DW.ref.__gxx_personality_v0
	.cfi_lsda 27, .Lexception6
# %bb.0:
	pushq	%rbp
	.cfi_def_cfa_offset 16
	.cfi_offset %rbp, -16
	movq	%rsp, %rbp
	.cfi_def_cfa_register %rbp
	subq	$176, %rsp
	movq	%fs:40, %rax
	movq	%rax, -8(%rbp)
	movq	%rdx, -112(%rbp)
	leaq	-56(%rbp), %rax
	movq	%rdi, -152(%rbp)                # 8-byte Spill
	movq	%rax, %rdi
	movq	-152(%rbp), %rax                # 8-byte Reload
	movq	%rsi, -160(%rbp)                # 8-byte Spill
	movq	%rax, %rsi
	callq	_ZNSt16istream_iteratorINSt7__cxx1112basic_stringIcSt11char_traitsIcESaIcEEEcS3_lEC2ERKS6_
.Ltmp46:
	leaq	-104(%rbp), %rdi
	movq	-160(%rbp), %rsi                # 8-byte Reload
	callq	_ZNSt16istream_iteratorINSt7__cxx1112basic_stringIcSt11char_traitsIcESaIcEEEcS3_lEC2ERKS6_
.Ltmp47:
	jmp	.LBB37_1
.LBB37_1:
	movq	-112(%rbp), %rax
	movq	%rax, -120(%rbp)
	movq	-120(%rbp), %rdx
.Ltmp49:
	leaq	-56(%rbp), %rdi
	leaq	-104(%rbp), %rsi
	callq	_ZSt14__copy_move_a2ILb0ESt16istream_iteratorINSt7__cxx1112basic_stringIcSt11char_traitsIcESaIcEEEcS4_lESt20back_insert_iteratorISt6vectorIS6_SaIS6_EEEET1_T0_SE_SD_
.Ltmp50:
	movq	%rax, -168(%rbp)                # 8-byte Spill
	jmp	.LBB37_2
.LBB37_2:
	movq	-168(%rbp), %rax                # 8-byte Reload
	movq	%rax, -128(%rbp)
	leaq	-104(%rbp), %rdi
	callq	_ZNSt16istream_iteratorINSt7__cxx1112basic_stringIcSt11char_traitsIcESaIcEEEcS3_lED2Ev
	leaq	-56(%rbp), %rdi
	callq	_ZNSt16istream_iteratorINSt7__cxx1112basic_stringIcSt11char_traitsIcESaIcEEEcS3_lED2Ev
	movq	-128(%rbp), %rax
	movq	%fs:40, %rcx
	movq	-8(%rbp), %rdx
	cmpq	%rdx, %rcx
	movq	%rax, -176(%rbp)                # 8-byte Spill
	jne	.LBB37_8
# %bb.3:
	movq	-176(%rbp), %rax                # 8-byte Reload
	addq	$176, %rsp
	popq	%rbp
	.cfi_def_cfa %rsp, 8
	retq
.LBB37_4:
	.cfi_def_cfa %rbp, 16
.Ltmp48:
                                        # kill: def $edx killed $edx killed $rdx
	movq	%rax, -136(%rbp)
	movl	%edx, -140(%rbp)
	jmp	.LBB37_6
.LBB37_5:
.Ltmp51:
                                        # kill: def $edx killed $edx killed $rdx
	movq	%rax, -136(%rbp)
	movl	%edx, -140(%rbp)
	leaq	-104(%rbp), %rdi
	callq	_ZNSt16istream_iteratorINSt7__cxx1112basic_stringIcSt11char_traitsIcESaIcEEEcS3_lED2Ev
.LBB37_6:
	leaq	-56(%rbp), %rdi
	callq	_ZNSt16istream_iteratorINSt7__cxx1112basic_stringIcSt11char_traitsIcESaIcEEEcS3_lED2Ev
# %bb.7:
	movq	-136(%rbp), %rdi
	callq	_Unwind_Resume@PLT
.LBB37_8:
	callq	__stack_chk_fail@PLT
.Lfunc_end37:
	.size	_ZSt14__copy_move_a1ILb0ESt16istream_iteratorINSt7__cxx1112basic_stringIcSt11char_traitsIcESaIcEEEcS4_lESt20back_insert_iteratorISt6vectorIS6_SaIS6_EEEET1_T0_SE_SD_, .Lfunc_end37-_ZSt14__copy_move_a1ILb0ESt16istream_iteratorINSt7__cxx1112basic_stringIcSt11char_traitsIcESaIcEEEcS4_lESt20back_insert_iteratorISt6vectorIS6_SaIS6_EEEET1_T0_SE_SD_
	.cfi_endproc
	.section	.gcc_except_table,"a",@progbits
	.p2align	2
GCC_except_table37:
.Lexception6:
	.byte	255                             # @LPStart Encoding = omit
	.byte	255                             # @TType Encoding = omit
	.byte	1                               # Call site Encoding = uleb128
	.uleb128 .Lcst_end6-.Lcst_begin6
.Lcst_begin6:
	.uleb128 .Lfunc_begin6-.Lfunc_begin6    # >> Call Site 1 <<
	.uleb128 .Ltmp46-.Lfunc_begin6          #   Call between .Lfunc_begin6 and .Ltmp46
	.byte	0                               #     has no landing pad
	.byte	0                               #   On action: cleanup
	.uleb128 .Ltmp46-.Lfunc_begin6          # >> Call Site 2 <<
	.uleb128 .Ltmp47-.Ltmp46                #   Call between .Ltmp46 and .Ltmp47
	.uleb128 .Ltmp48-.Lfunc_begin6          #     jumps to .Ltmp48
	.byte	0                               #   On action: cleanup
	.uleb128 .Ltmp49-.Lfunc_begin6          # >> Call Site 3 <<
	.uleb128 .Ltmp50-.Ltmp49                #   Call between .Ltmp49 and .Ltmp50
	.uleb128 .Ltmp51-.Lfunc_begin6          #     jumps to .Ltmp51
	.byte	0                               #   On action: cleanup
	.uleb128 .Ltmp50-.Lfunc_begin6          # >> Call Site 4 <<
	.uleb128 .Lfunc_end37-.Ltmp50           #   Call between .Ltmp50 and .Lfunc_end37
	.byte	0                               #     has no landing pad
	.byte	0                               #   On action: cleanup
.Lcst_end6:
	.p2align	2
                                        # -- End function
	.section	.text._ZSt12__niter_baseISt16istream_iteratorINSt7__cxx1112basic_stringIcSt11char_traitsIcESaIcEEEcS4_lEET_S8_,"axG",@progbits,_ZSt12__niter_baseISt16istream_iteratorINSt7__cxx1112basic_stringIcSt11char_traitsIcESaIcEEEcS4_lEET_S8_,comdat
	.weak	_ZSt12__niter_baseISt16istream_iteratorINSt7__cxx1112basic_stringIcSt11char_traitsIcESaIcEEEcS4_lEET_S8_ # -- Begin function _ZSt12__niter_baseISt16istream_iteratorINSt7__cxx1112basic_stringIcSt11char_traitsIcESaIcEEEcS4_lEET_S8_
	.p2align	4, 0x90
	.type	_ZSt12__niter_baseISt16istream_iteratorINSt7__cxx1112basic_stringIcSt11char_traitsIcESaIcEEEcS4_lEET_S8_,@function
_ZSt12__niter_baseISt16istream_iteratorINSt7__cxx1112basic_stringIcSt11char_traitsIcESaIcEEEcS4_lEET_S8_: # @_ZSt12__niter_baseISt16istream_iteratorINSt7__cxx1112basic_stringIcSt11char_traitsIcESaIcEEEcS4_lEET_S8_
	.cfi_startproc
# %bb.0:
	pushq	%rbp
	.cfi_def_cfa_offset 16
	.cfi_offset %rbp, -16
	movq	%rsp, %rbp
	.cfi_def_cfa_register %rbp
	subq	$16, %rsp
	movq	%rdi, %rax
	movq	%rdi, %rcx
	movq	%rcx, -8(%rbp)
	movq	%rax, -16(%rbp)                 # 8-byte Spill
	callq	_ZNSt16istream_iteratorINSt7__cxx1112basic_stringIcSt11char_traitsIcESaIcEEEcS3_lEC2ERKS6_
	movq	-16(%rbp), %rax                 # 8-byte Reload
	addq	$16, %rsp
	popq	%rbp
	.cfi_def_cfa %rsp, 8
	retq
.Lfunc_end38:
	.size	_ZSt12__niter_baseISt16istream_iteratorINSt7__cxx1112basic_stringIcSt11char_traitsIcESaIcEEEcS4_lEET_S8_, .Lfunc_end38-_ZSt12__niter_baseISt16istream_iteratorINSt7__cxx1112basic_stringIcSt11char_traitsIcESaIcEEEcS4_lEET_S8_
	.cfi_endproc
                                        # -- End function
	.section	.text._ZSt12__niter_baseISt20back_insert_iteratorISt6vectorINSt7__cxx1112basic_stringIcSt11char_traitsIcESaIcEEESaIS7_EEEET_SB_,"axG",@progbits,_ZSt12__niter_baseISt20back_insert_iteratorISt6vectorINSt7__cxx1112basic_stringIcSt11char_traitsIcESaIcEEESaIS7_EEEET_SB_,comdat
	.weak	_ZSt12__niter_baseISt20back_insert_iteratorISt6vectorINSt7__cxx1112basic_stringIcSt11char_traitsIcESaIcEEESaIS7_EEEET_SB_ # -- Begin function _ZSt12__niter_baseISt20back_insert_iteratorISt6vectorINSt7__cxx1112basic_stringIcSt11char_traitsIcESaIcEEESaIS7_EEEET_SB_
	.p2align	4, 0x90
	.type	_ZSt12__niter_baseISt20back_insert_iteratorISt6vectorINSt7__cxx1112basic_stringIcSt11char_traitsIcESaIcEEESaIS7_EEEET_SB_,@function
_ZSt12__niter_baseISt20back_insert_iteratorISt6vectorINSt7__cxx1112basic_stringIcSt11char_traitsIcESaIcEEESaIS7_EEEET_SB_: # @_ZSt12__niter_baseISt20back_insert_iteratorISt6vectorINSt7__cxx1112basic_stringIcSt11char_traitsIcESaIcEEESaIS7_EEEET_SB_
	.cfi_startproc
# %bb.0:
	pushq	%rbp
	.cfi_def_cfa_offset 16
	.cfi_offset %rbp, -16
	movq	%rsp, %rbp
	.cfi_def_cfa_register %rbp
	subq	$32, %rsp
	movq	%fs:40, %rax
	movq	%rax, -8(%rbp)
	movq	%rdi, -24(%rbp)
	movq	-24(%rbp), %rax
	movq	%rax, -16(%rbp)
	movq	-16(%rbp), %rax
	movq	%fs:40, %rcx
	movq	-8(%rbp), %rdx
	cmpq	%rdx, %rcx
	movq	%rax, -32(%rbp)                 # 8-byte Spill
	jne	.LBB39_2
# %bb.1:
	movq	-32(%rbp), %rax                 # 8-byte Reload
	addq	$32, %rsp
	popq	%rbp
	.cfi_def_cfa %rsp, 8
	retq
.LBB39_2:
	.cfi_def_cfa %rbp, 16
	callq	__stack_chk_fail@PLT
.Lfunc_end39:
	.size	_ZSt12__niter_baseISt20back_insert_iteratorISt6vectorINSt7__cxx1112basic_stringIcSt11char_traitsIcESaIcEEESaIS7_EEEET_SB_, .Lfunc_end39-_ZSt12__niter_baseISt20back_insert_iteratorISt6vectorINSt7__cxx1112basic_stringIcSt11char_traitsIcESaIcEEESaIS7_EEEET_SB_
	.cfi_endproc
                                        # -- End function
	.section	.text._ZSt14__copy_move_a2ILb0ESt16istream_iteratorINSt7__cxx1112basic_stringIcSt11char_traitsIcESaIcEEEcS4_lESt20back_insert_iteratorISt6vectorIS6_SaIS6_EEEET1_T0_SE_SD_,"axG",@progbits,_ZSt14__copy_move_a2ILb0ESt16istream_iteratorINSt7__cxx1112basic_stringIcSt11char_traitsIcESaIcEEEcS4_lESt20back_insert_iteratorISt6vectorIS6_SaIS6_EEEET1_T0_SE_SD_,comdat
	.weak	_ZSt14__copy_move_a2ILb0ESt16istream_iteratorINSt7__cxx1112basic_stringIcSt11char_traitsIcESaIcEEEcS4_lESt20back_insert_iteratorISt6vectorIS6_SaIS6_EEEET1_T0_SE_SD_ # -- Begin function _ZSt14__copy_move_a2ILb0ESt16istream_iteratorINSt7__cxx1112basic_stringIcSt11char_traitsIcESaIcEEEcS4_lESt20back_insert_iteratorISt6vectorIS6_SaIS6_EEEET1_T0_SE_SD_
	.p2align	4, 0x90
	.type	_ZSt14__copy_move_a2ILb0ESt16istream_iteratorINSt7__cxx1112basic_stringIcSt11char_traitsIcESaIcEEEcS4_lESt20back_insert_iteratorISt6vectorIS6_SaIS6_EEEET1_T0_SE_SD_,@function
_ZSt14__copy_move_a2ILb0ESt16istream_iteratorINSt7__cxx1112basic_stringIcSt11char_traitsIcESaIcEEEcS4_lESt20back_insert_iteratorISt6vectorIS6_SaIS6_EEEET1_T0_SE_SD_: # @_ZSt14__copy_move_a2ILb0ESt16istream_iteratorINSt7__cxx1112basic_stringIcSt11char_traitsIcESaIcEEEcS4_lESt20back_insert_iteratorISt6vectorIS6_SaIS6_EEEET1_T0_SE_SD_
.Lfunc_begin7:
	.cfi_startproc
	.cfi_personality 155, DW.ref.__gxx_personality_v0
	.cfi_lsda 27, .Lexception7
# %bb.0:
	pushq	%rbp
	.cfi_def_cfa_offset 16
	.cfi_offset %rbp, -16
	movq	%rsp, %rbp
	.cfi_def_cfa_register %rbp
	subq	$176, %rsp
	movq	%fs:40, %rax
	movq	%rax, -8(%rbp)
	movq	%rdx, -112(%rbp)
	leaq	-56(%rbp), %rax
	movq	%rdi, -152(%rbp)                # 8-byte Spill
	movq	%rax, %rdi
	movq	-152(%rbp), %rax                # 8-byte Reload
	movq	%rsi, -160(%rbp)                # 8-byte Spill
	movq	%rax, %rsi
	callq	_ZNSt16istream_iteratorINSt7__cxx1112basic_stringIcSt11char_traitsIcESaIcEEEcS3_lEC2ERKS6_
.Ltmp52:
	leaq	-104(%rbp), %rdi
	movq	-160(%rbp), %rsi                # 8-byte Reload
	callq	_ZNSt16istream_iteratorINSt7__cxx1112basic_stringIcSt11char_traitsIcESaIcEEEcS3_lEC2ERKS6_
.Ltmp53:
	jmp	.LBB40_1
.LBB40_1:
	movq	-112(%rbp), %rax
	movq	%rax, -120(%rbp)
	movq	-120(%rbp), %rdx
.Ltmp55:
	leaq	-56(%rbp), %rdi
	leaq	-104(%rbp), %rsi
	callq	_ZNSt11__copy_moveILb0ELb0ESt18input_iterator_tagE8__copy_mISt16istream_iteratorINSt7__cxx1112basic_stringIcSt11char_traitsIcESaIcEEEcS7_lESt20back_insert_iteratorISt6vectorIS9_SaIS9_EEEEET0_T_SH_SG_
.Ltmp56:
	movq	%rax, -168(%rbp)                # 8-byte Spill
	jmp	.LBB40_2
.LBB40_2:
	movq	-168(%rbp), %rax                # 8-byte Reload
	movq	%rax, -128(%rbp)
	leaq	-104(%rbp), %rdi
	callq	_ZNSt16istream_iteratorINSt7__cxx1112basic_stringIcSt11char_traitsIcESaIcEEEcS3_lED2Ev
	leaq	-56(%rbp), %rdi
	callq	_ZNSt16istream_iteratorINSt7__cxx1112basic_stringIcSt11char_traitsIcESaIcEEEcS3_lED2Ev
	movq	-128(%rbp), %rax
	movq	%fs:40, %rcx
	movq	-8(%rbp), %rdx
	cmpq	%rdx, %rcx
	movq	%rax, -176(%rbp)                # 8-byte Spill
	jne	.LBB40_8
# %bb.3:
	movq	-176(%rbp), %rax                # 8-byte Reload
	addq	$176, %rsp
	popq	%rbp
	.cfi_def_cfa %rsp, 8
	retq
.LBB40_4:
	.cfi_def_cfa %rbp, 16
.Ltmp54:
                                        # kill: def $edx killed $edx killed $rdx
	movq	%rax, -136(%rbp)
	movl	%edx, -140(%rbp)
	jmp	.LBB40_6
.LBB40_5:
.Ltmp57:
                                        # kill: def $edx killed $edx killed $rdx
	movq	%rax, -136(%rbp)
	movl	%edx, -140(%rbp)
	leaq	-104(%rbp), %rdi
	callq	_ZNSt16istream_iteratorINSt7__cxx1112basic_stringIcSt11char_traitsIcESaIcEEEcS3_lED2Ev
.LBB40_6:
	leaq	-56(%rbp), %rdi
	callq	_ZNSt16istream_iteratorINSt7__cxx1112basic_stringIcSt11char_traitsIcESaIcEEEcS3_lED2Ev
# %bb.7:
	movq	-136(%rbp), %rdi
	callq	_Unwind_Resume@PLT
.LBB40_8:
	callq	__stack_chk_fail@PLT
.Lfunc_end40:
	.size	_ZSt14__copy_move_a2ILb0ESt16istream_iteratorINSt7__cxx1112basic_stringIcSt11char_traitsIcESaIcEEEcS4_lESt20back_insert_iteratorISt6vectorIS6_SaIS6_EEEET1_T0_SE_SD_, .Lfunc_end40-_ZSt14__copy_move_a2ILb0ESt16istream_iteratorINSt7__cxx1112basic_stringIcSt11char_traitsIcESaIcEEEcS4_lESt20back_insert_iteratorISt6vectorIS6_SaIS6_EEEET1_T0_SE_SD_
	.cfi_endproc
	.section	.gcc_except_table,"a",@progbits
	.p2align	2
GCC_except_table40:
.Lexception7:
	.byte	255                             # @LPStart Encoding = omit
	.byte	255                             # @TType Encoding = omit
	.byte	1                               # Call site Encoding = uleb128
	.uleb128 .Lcst_end7-.Lcst_begin7
.Lcst_begin7:
	.uleb128 .Lfunc_begin7-.Lfunc_begin7    # >> Call Site 1 <<
	.uleb128 .Ltmp52-.Lfunc_begin7          #   Call between .Lfunc_begin7 and .Ltmp52
	.byte	0                               #     has no landing pad
	.byte	0                               #   On action: cleanup
	.uleb128 .Ltmp52-.Lfunc_begin7          # >> Call Site 2 <<
	.uleb128 .Ltmp53-.Ltmp52                #   Call between .Ltmp52 and .Ltmp53
	.uleb128 .Ltmp54-.Lfunc_begin7          #     jumps to .Ltmp54
	.byte	0                               #   On action: cleanup
	.uleb128 .Ltmp55-.Lfunc_begin7          # >> Call Site 3 <<
	.uleb128 .Ltmp56-.Ltmp55                #   Call between .Ltmp55 and .Ltmp56
	.uleb128 .Ltmp57-.Lfunc_begin7          #     jumps to .Ltmp57
	.byte	0                               #   On action: cleanup
	.uleb128 .Ltmp56-.Lfunc_begin7          # >> Call Site 4 <<
	.uleb128 .Lfunc_end40-.Ltmp56           #   Call between .Ltmp56 and .Lfunc_end40
	.byte	0                               #     has no landing pad
	.byte	0                               #   On action: cleanup
.Lcst_end7:
	.p2align	2
                                        # -- End function
	.section	.text._ZNSt11__copy_moveILb0ELb0ESt18input_iterator_tagE8__copy_mISt16istream_iteratorINSt7__cxx1112basic_stringIcSt11char_traitsIcESaIcEEEcS7_lESt20back_insert_iteratorISt6vectorIS9_SaIS9_EEEEET0_T_SH_SG_,"axG",@progbits,_ZNSt11__copy_moveILb0ELb0ESt18input_iterator_tagE8__copy_mISt16istream_iteratorINSt7__cxx1112basic_stringIcSt11char_traitsIcESaIcEEEcS7_lESt20back_insert_iteratorISt6vectorIS9_SaIS9_EEEEET0_T_SH_SG_,comdat
	.weak	_ZNSt11__copy_moveILb0ELb0ESt18input_iterator_tagE8__copy_mISt16istream_iteratorINSt7__cxx1112basic_stringIcSt11char_traitsIcESaIcEEEcS7_lESt20back_insert_iteratorISt6vectorIS9_SaIS9_EEEEET0_T_SH_SG_ # -- Begin function _ZNSt11__copy_moveILb0ELb0ESt18input_iterator_tagE8__copy_mISt16istream_iteratorINSt7__cxx1112basic_stringIcSt11char_traitsIcESaIcEEEcS7_lESt20back_insert_iteratorISt6vectorIS9_SaIS9_EEEEET0_T_SH_SG_
	.p2align	4, 0x90
	.type	_ZNSt11__copy_moveILb0ELb0ESt18input_iterator_tagE8__copy_mISt16istream_iteratorINSt7__cxx1112basic_stringIcSt11char_traitsIcESaIcEEEcS7_lESt20back_insert_iteratorISt6vectorIS9_SaIS9_EEEEET0_T_SH_SG_,@function
_ZNSt11__copy_moveILb0ELb0ESt18input_iterator_tagE8__copy_mISt16istream_iteratorINSt7__cxx1112basic_stringIcSt11char_traitsIcESaIcEEEcS7_lESt20back_insert_iteratorISt6vectorIS9_SaIS9_EEEEET0_T_SH_SG_: # @_ZNSt11__copy_moveILb0ELb0ESt18input_iterator_tagE8__copy_mISt16istream_iteratorINSt7__cxx1112basic_stringIcSt11char_traitsIcESaIcEEEcS7_lESt20back_insert_iteratorISt6vectorIS9_SaIS9_EEEEET0_T_SH_SG_
	.cfi_startproc
# %bb.0:
	pushq	%rbp
	.cfi_def_cfa_offset 16
	.cfi_offset %rbp, -16
	movq	%rsp, %rbp
	.cfi_def_cfa_register %rbp
	subq	$64, %rsp
	movq	%fs:40, %rax
	movq	%rax, -8(%rbp)
	movq	%rdx, -24(%rbp)
	movq	%rdi, -32(%rbp)                 # 8-byte Spill
	movq	%rsi, -40(%rbp)                 # 8-byte Spill
.LBB41_1:                               # =>This Inner Loop Header: Depth=1
	movq	-32(%rbp), %rdi                 # 8-byte Reload
	movq	-40(%rbp), %rsi                 # 8-byte Reload
	callq	_ZStneRKSt16istream_iteratorINSt7__cxx1112basic_stringIcSt11char_traitsIcESaIcEEEcS3_lES8_
	testb	$1, %al
	jne	.LBB41_2
	jmp	.LBB41_4
.LBB41_2:                               #   in Loop: Header=BB41_1 Depth=1
	movq	-32(%rbp), %rdi                 # 8-byte Reload
	callq	_ZNKSt16istream_iteratorINSt7__cxx1112basic_stringIcSt11char_traitsIcESaIcEEEcS3_lEdeEv
	leaq	-24(%rbp), %rdi
	movq	%rax, -48(%rbp)                 # 8-byte Spill
	callq	_ZNSt20back_insert_iteratorISt6vectorINSt7__cxx1112basic_stringIcSt11char_traitsIcESaIcEEESaIS6_EEEdeEv
	movq	%rax, %rdi
	movq	-48(%rbp), %rsi                 # 8-byte Reload
	callq	_ZNSt20back_insert_iteratorISt6vectorINSt7__cxx1112basic_stringIcSt11char_traitsIcESaIcEEESaIS6_EEEaSERKS6_
# %bb.3:                                #   in Loop: Header=BB41_1 Depth=1
	leaq	-24(%rbp), %rdi
	callq	_ZNSt20back_insert_iteratorISt6vectorINSt7__cxx1112basic_stringIcSt11char_traitsIcESaIcEEESaIS6_EEEppEv
	movq	-32(%rbp), %rdi                 # 8-byte Reload
	movq	%rax, -56(%rbp)                 # 8-byte Spill
	callq	_ZNSt16istream_iteratorINSt7__cxx1112basic_stringIcSt11char_traitsIcESaIcEEEcS3_lEppEv
	jmp	.LBB41_1
.LBB41_4:
	movq	-24(%rbp), %rax
	movq	%rax, -16(%rbp)
	movq	-16(%rbp), %rax
	movq	%fs:40, %rcx
	movq	-8(%rbp), %rdx
	cmpq	%rdx, %rcx
	movq	%rax, -64(%rbp)                 # 8-byte Spill
	jne	.LBB41_6
# %bb.5:
	movq	-64(%rbp), %rax                 # 8-byte Reload
	addq	$64, %rsp
	popq	%rbp
	.cfi_def_cfa %rsp, 8
	retq
.LBB41_6:
	.cfi_def_cfa %rbp, 16
	callq	__stack_chk_fail@PLT
.Lfunc_end41:
	.size	_ZNSt11__copy_moveILb0ELb0ESt18input_iterator_tagE8__copy_mISt16istream_iteratorINSt7__cxx1112basic_stringIcSt11char_traitsIcESaIcEEEcS7_lESt20back_insert_iteratorISt6vectorIS9_SaIS9_EEEEET0_T_SH_SG_, .Lfunc_end41-_ZNSt11__copy_moveILb0ELb0ESt18input_iterator_tagE8__copy_mISt16istream_iteratorINSt7__cxx1112basic_stringIcSt11char_traitsIcESaIcEEEcS7_lESt20back_insert_iteratorISt6vectorIS9_SaIS9_EEEEET0_T_SH_SG_
	.cfi_endproc
                                        # -- End function
	.section	.text._ZStneRKSt16istream_iteratorINSt7__cxx1112basic_stringIcSt11char_traitsIcESaIcEEEcS3_lES8_,"axG",@progbits,_ZStneRKSt16istream_iteratorINSt7__cxx1112basic_stringIcSt11char_traitsIcESaIcEEEcS3_lES8_,comdat
	.weak	_ZStneRKSt16istream_iteratorINSt7__cxx1112basic_stringIcSt11char_traitsIcESaIcEEEcS3_lES8_ # -- Begin function _ZStneRKSt16istream_iteratorINSt7__cxx1112basic_stringIcSt11char_traitsIcESaIcEEEcS3_lES8_
	.p2align	4, 0x90
	.type	_ZStneRKSt16istream_iteratorINSt7__cxx1112basic_stringIcSt11char_traitsIcESaIcEEEcS3_lES8_,@function
_ZStneRKSt16istream_iteratorINSt7__cxx1112basic_stringIcSt11char_traitsIcESaIcEEEcS3_lES8_: # @_ZStneRKSt16istream_iteratorINSt7__cxx1112basic_stringIcSt11char_traitsIcESaIcEEEcS3_lES8_
	.cfi_startproc
# %bb.0:
	pushq	%rbp
	.cfi_def_cfa_offset 16
	.cfi_offset %rbp, -16
	movq	%rsp, %rbp
	.cfi_def_cfa_register %rbp
	subq	$16, %rsp
	movq	%rdi, -8(%rbp)
	movq	%rsi, -16(%rbp)
	movq	-8(%rbp), %rdi
	movq	-16(%rbp), %rsi
	callq	_ZNKSt16istream_iteratorINSt7__cxx1112basic_stringIcSt11char_traitsIcESaIcEEEcS3_lE8_M_equalERKS6_
	xorb	$-1, %al
	andb	$1, %al
	movzbl	%al, %eax
	addq	$16, %rsp
	popq	%rbp
	.cfi_def_cfa %rsp, 8
	retq
.Lfunc_end42:
	.size	_ZStneRKSt16istream_iteratorINSt7__cxx1112basic_stringIcSt11char_traitsIcESaIcEEEcS3_lES8_, .Lfunc_end42-_ZStneRKSt16istream_iteratorINSt7__cxx1112basic_stringIcSt11char_traitsIcESaIcEEEcS3_lES8_
	.cfi_endproc
                                        # -- End function
	.section	.text._ZNKSt16istream_iteratorINSt7__cxx1112basic_stringIcSt11char_traitsIcESaIcEEEcS3_lEdeEv,"axG",@progbits,_ZNKSt16istream_iteratorINSt7__cxx1112basic_stringIcSt11char_traitsIcESaIcEEEcS3_lEdeEv,comdat
	.weak	_ZNKSt16istream_iteratorINSt7__cxx1112basic_stringIcSt11char_traitsIcESaIcEEEcS3_lEdeEv # -- Begin function _ZNKSt16istream_iteratorINSt7__cxx1112basic_stringIcSt11char_traitsIcESaIcEEEcS3_lEdeEv
	.p2align	4, 0x90
	.type	_ZNKSt16istream_iteratorINSt7__cxx1112basic_stringIcSt11char_traitsIcESaIcEEEcS3_lEdeEv,@function
_ZNKSt16istream_iteratorINSt7__cxx1112basic_stringIcSt11char_traitsIcESaIcEEEcS3_lEdeEv: # @_ZNKSt16istream_iteratorINSt7__cxx1112basic_stringIcSt11char_traitsIcESaIcEEEcS3_lEdeEv
	.cfi_startproc
# %bb.0:
	pushq	%rbp
	.cfi_def_cfa_offset 16
	.cfi_offset %rbp, -16
	movq	%rsp, %rbp
	.cfi_def_cfa_register %rbp
	movq	%rdi, -8(%rbp)
	movq	-8(%rbp), %rax
	addq	$8, %rax
	popq	%rbp
	.cfi_def_cfa %rsp, 8
	retq
.Lfunc_end43:
	.size	_ZNKSt16istream_iteratorINSt7__cxx1112basic_stringIcSt11char_traitsIcESaIcEEEcS3_lEdeEv, .Lfunc_end43-_ZNKSt16istream_iteratorINSt7__cxx1112basic_stringIcSt11char_traitsIcESaIcEEEcS3_lEdeEv
	.cfi_endproc
                                        # -- End function
	.section	.text._ZNSt20back_insert_iteratorISt6vectorINSt7__cxx1112basic_stringIcSt11char_traitsIcESaIcEEESaIS6_EEEdeEv,"axG",@progbits,_ZNSt20back_insert_iteratorISt6vectorINSt7__cxx1112basic_stringIcSt11char_traitsIcESaIcEEESaIS6_EEEdeEv,comdat
	.weak	_ZNSt20back_insert_iteratorISt6vectorINSt7__cxx1112basic_stringIcSt11char_traitsIcESaIcEEESaIS6_EEEdeEv # -- Begin function _ZNSt20back_insert_iteratorISt6vectorINSt7__cxx1112basic_stringIcSt11char_traitsIcESaIcEEESaIS6_EEEdeEv
	.p2align	4, 0x90
	.type	_ZNSt20back_insert_iteratorISt6vectorINSt7__cxx1112basic_stringIcSt11char_traitsIcESaIcEEESaIS6_EEEdeEv,@function
_ZNSt20back_insert_iteratorISt6vectorINSt7__cxx1112basic_stringIcSt11char_traitsIcESaIcEEESaIS6_EEEdeEv: # @_ZNSt20back_insert_iteratorISt6vectorINSt7__cxx1112basic_stringIcSt11char_traitsIcESaIcEEESaIS6_EEEdeEv
	.cfi_startproc
# %bb.0:
	pushq	%rbp
	.cfi_def_cfa_offset 16
	.cfi_offset %rbp, -16
	movq	%rsp, %rbp
	.cfi_def_cfa_register %rbp
	movq	%rdi, -8(%rbp)
	movq	-8(%rbp), %rax
	popq	%rbp
	.cfi_def_cfa %rsp, 8
	retq
.Lfunc_end44:
	.size	_ZNSt20back_insert_iteratorISt6vectorINSt7__cxx1112basic_stringIcSt11char_traitsIcESaIcEEESaIS6_EEEdeEv, .Lfunc_end44-_ZNSt20back_insert_iteratorISt6vectorINSt7__cxx1112basic_stringIcSt11char_traitsIcESaIcEEESaIS6_EEEdeEv
	.cfi_endproc
                                        # -- End function
	.section	.text._ZNSt20back_insert_iteratorISt6vectorINSt7__cxx1112basic_stringIcSt11char_traitsIcESaIcEEESaIS6_EEEaSERKS6_,"axG",@progbits,_ZNSt20back_insert_iteratorISt6vectorINSt7__cxx1112basic_stringIcSt11char_traitsIcESaIcEEESaIS6_EEEaSERKS6_,comdat
	.weak	_ZNSt20back_insert_iteratorISt6vectorINSt7__cxx1112basic_stringIcSt11char_traitsIcESaIcEEESaIS6_EEEaSERKS6_ # -- Begin function _ZNSt20back_insert_iteratorISt6vectorINSt7__cxx1112basic_stringIcSt11char_traitsIcESaIcEEESaIS6_EEEaSERKS6_
	.p2align	4, 0x90
	.type	_ZNSt20back_insert_iteratorISt6vectorINSt7__cxx1112basic_stringIcSt11char_traitsIcESaIcEEESaIS6_EEEaSERKS6_,@function
_ZNSt20back_insert_iteratorISt6vectorINSt7__cxx1112basic_stringIcSt11char_traitsIcESaIcEEESaIS6_EEEaSERKS6_: # @_ZNSt20back_insert_iteratorISt6vectorINSt7__cxx1112basic_stringIcSt11char_traitsIcESaIcEEESaIS6_EEEaSERKS6_
	.cfi_startproc
# %bb.0:
	pushq	%rbp
	.cfi_def_cfa_offset 16
	.cfi_offset %rbp, -16
	movq	%rsp, %rbp
	.cfi_def_cfa_register %rbp
	subq	$32, %rsp
	movq	%rdi, -8(%rbp)
	movq	%rsi, -16(%rbp)
	movq	-8(%rbp), %rax
	movq	(%rax), %rdi
	movq	-16(%rbp), %rsi
	movq	%rax, -24(%rbp)                 # 8-byte Spill
	callq	_ZNSt6vectorINSt7__cxx1112basic_stringIcSt11char_traitsIcESaIcEEESaIS5_EE9push_backERKS5_
	movq	-24(%rbp), %rax                 # 8-byte Reload
	addq	$32, %rsp
	popq	%rbp
	.cfi_def_cfa %rsp, 8
	retq
.Lfunc_end45:
	.size	_ZNSt20back_insert_iteratorISt6vectorINSt7__cxx1112basic_stringIcSt11char_traitsIcESaIcEEESaIS6_EEEaSERKS6_, .Lfunc_end45-_ZNSt20back_insert_iteratorISt6vectorINSt7__cxx1112basic_stringIcSt11char_traitsIcESaIcEEESaIS6_EEEaSERKS6_
	.cfi_endproc
                                        # -- End function
	.section	.text._ZNSt20back_insert_iteratorISt6vectorINSt7__cxx1112basic_stringIcSt11char_traitsIcESaIcEEESaIS6_EEEppEv,"axG",@progbits,_ZNSt20back_insert_iteratorISt6vectorINSt7__cxx1112basic_stringIcSt11char_traitsIcESaIcEEESaIS6_EEEppEv,comdat
	.weak	_ZNSt20back_insert_iteratorISt6vectorINSt7__cxx1112basic_stringIcSt11char_traitsIcESaIcEEESaIS6_EEEppEv # -- Begin function _ZNSt20back_insert_iteratorISt6vectorINSt7__cxx1112basic_stringIcSt11char_traitsIcESaIcEEESaIS6_EEEppEv
	.p2align	4, 0x90
	.type	_ZNSt20back_insert_iteratorISt6vectorINSt7__cxx1112basic_stringIcSt11char_traitsIcESaIcEEESaIS6_EEEppEv,@function
_ZNSt20back_insert_iteratorISt6vectorINSt7__cxx1112basic_stringIcSt11char_traitsIcESaIcEEESaIS6_EEEppEv: # @_ZNSt20back_insert_iteratorISt6vectorINSt7__cxx1112basic_stringIcSt11char_traitsIcESaIcEEESaIS6_EEEppEv
	.cfi_startproc
# %bb.0:
	pushq	%rbp
	.cfi_def_cfa_offset 16
	.cfi_offset %rbp, -16
	movq	%rsp, %rbp
	.cfi_def_cfa_register %rbp
	movq	%rdi, -8(%rbp)
	movq	-8(%rbp), %rax
	popq	%rbp
	.cfi_def_cfa %rsp, 8
	retq
.Lfunc_end46:
	.size	_ZNSt20back_insert_iteratorISt6vectorINSt7__cxx1112basic_stringIcSt11char_traitsIcESaIcEEESaIS6_EEEppEv, .Lfunc_end46-_ZNSt20back_insert_iteratorISt6vectorINSt7__cxx1112basic_stringIcSt11char_traitsIcESaIcEEESaIS6_EEEppEv
	.cfi_endproc
                                        # -- End function
	.section	.text._ZNSt16istream_iteratorINSt7__cxx1112basic_stringIcSt11char_traitsIcESaIcEEEcS3_lEppEv,"axG",@progbits,_ZNSt16istream_iteratorINSt7__cxx1112basic_stringIcSt11char_traitsIcESaIcEEEcS3_lEppEv,comdat
	.weak	_ZNSt16istream_iteratorINSt7__cxx1112basic_stringIcSt11char_traitsIcESaIcEEEcS3_lEppEv # -- Begin function _ZNSt16istream_iteratorINSt7__cxx1112basic_stringIcSt11char_traitsIcESaIcEEEcS3_lEppEv
	.p2align	4, 0x90
	.type	_ZNSt16istream_iteratorINSt7__cxx1112basic_stringIcSt11char_traitsIcESaIcEEEcS3_lEppEv,@function
_ZNSt16istream_iteratorINSt7__cxx1112basic_stringIcSt11char_traitsIcESaIcEEEcS3_lEppEv: # @_ZNSt16istream_iteratorINSt7__cxx1112basic_stringIcSt11char_traitsIcESaIcEEEcS3_lEppEv
	.cfi_startproc
# %bb.0:
	pushq	%rbp
	.cfi_def_cfa_offset 16
	.cfi_offset %rbp, -16
	movq	%rsp, %rbp
	.cfi_def_cfa_register %rbp
	subq	$16, %rsp
	movq	%rdi, -8(%rbp)
	movq	-8(%rbp), %rax
	movq	%rax, %rdi
	movq	%rax, -16(%rbp)                 # 8-byte Spill
	callq	_ZNSt16istream_iteratorINSt7__cxx1112basic_stringIcSt11char_traitsIcESaIcEEEcS3_lE7_M_readEv
	movq	-16(%rbp), %rax                 # 8-byte Reload
	addq	$16, %rsp
	popq	%rbp
	.cfi_def_cfa %rsp, 8
	retq
.Lfunc_end47:
	.size	_ZNSt16istream_iteratorINSt7__cxx1112basic_stringIcSt11char_traitsIcESaIcEEEcS3_lEppEv, .Lfunc_end47-_ZNSt16istream_iteratorINSt7__cxx1112basic_stringIcSt11char_traitsIcESaIcEEEcS3_lEppEv
	.cfi_endproc
                                        # -- End function
	.section	.text._ZNKSt16istream_iteratorINSt7__cxx1112basic_stringIcSt11char_traitsIcESaIcEEEcS3_lE8_M_equalERKS6_,"axG",@progbits,_ZNKSt16istream_iteratorINSt7__cxx1112basic_stringIcSt11char_traitsIcESaIcEEEcS3_lE8_M_equalERKS6_,comdat
	.weak	_ZNKSt16istream_iteratorINSt7__cxx1112basic_stringIcSt11char_traitsIcESaIcEEEcS3_lE8_M_equalERKS6_ # -- Begin function _ZNKSt16istream_iteratorINSt7__cxx1112basic_stringIcSt11char_traitsIcESaIcEEEcS3_lE8_M_equalERKS6_
	.p2align	4, 0x90
	.type	_ZNKSt16istream_iteratorINSt7__cxx1112basic_stringIcSt11char_traitsIcESaIcEEEcS3_lE8_M_equalERKS6_,@function
_ZNKSt16istream_iteratorINSt7__cxx1112basic_stringIcSt11char_traitsIcESaIcEEEcS3_lE8_M_equalERKS6_: # @_ZNKSt16istream_iteratorINSt7__cxx1112basic_stringIcSt11char_traitsIcESaIcEEEcS3_lE8_M_equalERKS6_
	.cfi_startproc
# %bb.0:
	pushq	%rbp
	.cfi_def_cfa_offset 16
	.cfi_offset %rbp, -16
	movq	%rsp, %rbp
	.cfi_def_cfa_register %rbp
	xorl	%eax, %eax
                                        # kill: def $al killed $al killed $eax
	movq	%rdi, -8(%rbp)
	movq	%rsi, -16(%rbp)
	movq	-8(%rbp), %rcx
	movb	40(%rcx), %dl
	andb	$1, %dl
	movzbl	%dl, %r8d
	movq	-16(%rbp), %rsi
	movb	40(%rsi), %dl
	andb	$1, %dl
	movzbl	%dl, %r9d
	cmpl	%r9d, %r8d
	movq	%rcx, -24(%rbp)                 # 8-byte Spill
	movb	%al, -25(%rbp)                  # 1-byte Spill
	jne	.LBB48_4
# %bb.1:
	movq	-24(%rbp), %rax                 # 8-byte Reload
	testb	$1, 40(%rax)
	movb	$1, %cl
	movb	%cl, -26(%rbp)                  # 1-byte Spill
	je	.LBB48_3
# %bb.2:
	movq	-24(%rbp), %rax                 # 8-byte Reload
	movq	(%rax), %rcx
	movq	-16(%rbp), %rdx
	cmpq	(%rdx), %rcx
	sete	%sil
	movb	%sil, -26(%rbp)                 # 1-byte Spill
.LBB48_3:
	movb	-26(%rbp), %al                  # 1-byte Reload
	movb	%al, -25(%rbp)                  # 1-byte Spill
.LBB48_4:
	movb	-25(%rbp), %al                  # 1-byte Reload
	andb	$1, %al
	movzbl	%al, %eax
	popq	%rbp
	.cfi_def_cfa %rsp, 8
	retq
.Lfunc_end48:
	.size	_ZNKSt16istream_iteratorINSt7__cxx1112basic_stringIcSt11char_traitsIcESaIcEEEcS3_lE8_M_equalERKS6_, .Lfunc_end48-_ZNKSt16istream_iteratorINSt7__cxx1112basic_stringIcSt11char_traitsIcESaIcEEEcS3_lE8_M_equalERKS6_
	.cfi_endproc
                                        # -- End function
	.section	.text._ZNSt6vectorINSt7__cxx1112basic_stringIcSt11char_traitsIcESaIcEEESaIS5_EE9push_backERKS5_,"axG",@progbits,_ZNSt6vectorINSt7__cxx1112basic_stringIcSt11char_traitsIcESaIcEEESaIS5_EE9push_backERKS5_,comdat
	.weak	_ZNSt6vectorINSt7__cxx1112basic_stringIcSt11char_traitsIcESaIcEEESaIS5_EE9push_backERKS5_ # -- Begin function _ZNSt6vectorINSt7__cxx1112basic_stringIcSt11char_traitsIcESaIcEEESaIS5_EE9push_backERKS5_
	.p2align	4, 0x90
	.type	_ZNSt6vectorINSt7__cxx1112basic_stringIcSt11char_traitsIcESaIcEEESaIS5_EE9push_backERKS5_,@function
_ZNSt6vectorINSt7__cxx1112basic_stringIcSt11char_traitsIcESaIcEEESaIS5_EE9push_backERKS5_: # @_ZNSt6vectorINSt7__cxx1112basic_stringIcSt11char_traitsIcESaIcEEESaIS5_EE9push_backERKS5_
	.cfi_startproc
# %bb.0:
	pushq	%rbp
	.cfi_def_cfa_offset 16
	.cfi_offset %rbp, -16
	movq	%rsp, %rbp
	.cfi_def_cfa_register %rbp
	subq	$32, %rsp
	movq	%rdi, -8(%rbp)
	movq	%rsi, -16(%rbp)
	movq	-8(%rbp), %rax
	movq	8(%rax), %rcx
	cmpq	16(%rax), %rcx
	movq	%rax, -32(%rbp)                 # 8-byte Spill
	je	.LBB49_2
# %bb.1:
	movq	-32(%rbp), %rax                 # 8-byte Reload
	movq	-32(%rbp), %rcx                 # 8-byte Reload
	movq	8(%rcx), %rsi
	movq	-16(%rbp), %rdx
	movq	%rax, %rdi
	callq	_ZNSt16allocator_traitsISaINSt7__cxx1112basic_stringIcSt11char_traitsIcESaIcEEEEE9constructIS5_JRKS5_EEEvRS6_PT_DpOT0_
	movq	-32(%rbp), %rax                 # 8-byte Reload
	movq	8(%rax), %rcx
	addq	$32, %rcx
	movq	%rcx, 8(%rax)
	jmp	.LBB49_3
.LBB49_2:
	movq	-32(%rbp), %rdi                 # 8-byte Reload
	callq	_ZNSt6vectorINSt7__cxx1112basic_stringIcSt11char_traitsIcESaIcEEESaIS5_EE3endEv
	movq	%rax, -24(%rbp)
	movq	-16(%rbp), %rdx
	movq	-24(%rbp), %rsi
	movq	-32(%rbp), %rdi                 # 8-byte Reload
	callq	_ZNSt6vectorINSt7__cxx1112basic_stringIcSt11char_traitsIcESaIcEEESaIS5_EE17_M_realloc_insertIJRKS5_EEEvN9__gnu_cxx17__normal_iteratorIPS5_S7_EEDpOT_
.LBB49_3:
	addq	$32, %rsp
	popq	%rbp
	.cfi_def_cfa %rsp, 8
	retq
.Lfunc_end49:
	.size	_ZNSt6vectorINSt7__cxx1112basic_stringIcSt11char_traitsIcESaIcEEESaIS5_EE9push_backERKS5_, .Lfunc_end49-_ZNSt6vectorINSt7__cxx1112basic_stringIcSt11char_traitsIcESaIcEEESaIS5_EE9push_backERKS5_
	.cfi_endproc
                                        # -- End function
	.section	.text._ZNSt16allocator_traitsISaINSt7__cxx1112basic_stringIcSt11char_traitsIcESaIcEEEEE9constructIS5_JRKS5_EEEvRS6_PT_DpOT0_,"axG",@progbits,_ZNSt16allocator_traitsISaINSt7__cxx1112basic_stringIcSt11char_traitsIcESaIcEEEEE9constructIS5_JRKS5_EEEvRS6_PT_DpOT0_,comdat
	.weak	_ZNSt16allocator_traitsISaINSt7__cxx1112basic_stringIcSt11char_traitsIcESaIcEEEEE9constructIS5_JRKS5_EEEvRS6_PT_DpOT0_ # -- Begin function _ZNSt16allocator_traitsISaINSt7__cxx1112basic_stringIcSt11char_traitsIcESaIcEEEEE9constructIS5_JRKS5_EEEvRS6_PT_DpOT0_
	.p2align	4, 0x90
	.type	_ZNSt16allocator_traitsISaINSt7__cxx1112basic_stringIcSt11char_traitsIcESaIcEEEEE9constructIS5_JRKS5_EEEvRS6_PT_DpOT0_,@function
_ZNSt16allocator_traitsISaINSt7__cxx1112basic_stringIcSt11char_traitsIcESaIcEEEEE9constructIS5_JRKS5_EEEvRS6_PT_DpOT0_: # @_ZNSt16allocator_traitsISaINSt7__cxx1112basic_stringIcSt11char_traitsIcESaIcEEEEE9constructIS5_JRKS5_EEEvRS6_PT_DpOT0_
	.cfi_startproc
# %bb.0:
	pushq	%rbp
	.cfi_def_cfa_offset 16
	.cfi_offset %rbp, -16
	movq	%rsp, %rbp
	.cfi_def_cfa_register %rbp
	subq	$48, %rsp
	movq	%rdi, -8(%rbp)
	movq	%rsi, -16(%rbp)
	movq	%rdx, -24(%rbp)
	movq	-8(%rbp), %rax
	movq	-16(%rbp), %rsi
	movq	-24(%rbp), %rdi
	movq	%rax, -32(%rbp)                 # 8-byte Spill
	movq	%rsi, -40(%rbp)                 # 8-byte Spill
	callq	_ZSt7forwardIRKNSt7__cxx1112basic_stringIcSt11char_traitsIcESaIcEEEEOT_RNSt16remove_referenceIS8_E4typeE
	movq	-32(%rbp), %rdi                 # 8-byte Reload
	movq	-40(%rbp), %rsi                 # 8-byte Reload
	movq	%rax, %rdx
	callq	_ZN9__gnu_cxx13new_allocatorINSt7__cxx1112basic_stringIcSt11char_traitsIcESaIcEEEE9constructIS6_JRKS6_EEEvPT_DpOT0_
	addq	$48, %rsp
	popq	%rbp
	.cfi_def_cfa %rsp, 8
	retq
.Lfunc_end50:
	.size	_ZNSt16allocator_traitsISaINSt7__cxx1112basic_stringIcSt11char_traitsIcESaIcEEEEE9constructIS5_JRKS5_EEEvRS6_PT_DpOT0_, .Lfunc_end50-_ZNSt16allocator_traitsISaINSt7__cxx1112basic_stringIcSt11char_traitsIcESaIcEEEEE9constructIS5_JRKS5_EEEvRS6_PT_DpOT0_
	.cfi_endproc
                                        # -- End function
	.section	.text._ZNSt6vectorINSt7__cxx1112basic_stringIcSt11char_traitsIcESaIcEEESaIS5_EE17_M_realloc_insertIJRKS5_EEEvN9__gnu_cxx17__normal_iteratorIPS5_S7_EEDpOT_,"axG",@progbits,_ZNSt6vectorINSt7__cxx1112basic_stringIcSt11char_traitsIcESaIcEEESaIS5_EE17_M_realloc_insertIJRKS5_EEEvN9__gnu_cxx17__normal_iteratorIPS5_S7_EEDpOT_,comdat
	.weak	_ZNSt6vectorINSt7__cxx1112basic_stringIcSt11char_traitsIcESaIcEEESaIS5_EE17_M_realloc_insertIJRKS5_EEEvN9__gnu_cxx17__normal_iteratorIPS5_S7_EEDpOT_ # -- Begin function _ZNSt6vectorINSt7__cxx1112basic_stringIcSt11char_traitsIcESaIcEEESaIS5_EE17_M_realloc_insertIJRKS5_EEEvN9__gnu_cxx17__normal_iteratorIPS5_S7_EEDpOT_
	.p2align	4, 0x90
	.type	_ZNSt6vectorINSt7__cxx1112basic_stringIcSt11char_traitsIcESaIcEEESaIS5_EE17_M_realloc_insertIJRKS5_EEEvN9__gnu_cxx17__normal_iteratorIPS5_S7_EEDpOT_,@function
_ZNSt6vectorINSt7__cxx1112basic_stringIcSt11char_traitsIcESaIcEEESaIS5_EE17_M_realloc_insertIJRKS5_EEEvN9__gnu_cxx17__normal_iteratorIPS5_S7_EEDpOT_: # @_ZNSt6vectorINSt7__cxx1112basic_stringIcSt11char_traitsIcESaIcEEESaIS5_EE17_M_realloc_insertIJRKS5_EEEvN9__gnu_cxx17__normal_iteratorIPS5_S7_EEDpOT_
.Lfunc_begin8:
	.cfi_startproc
	.cfi_personality 155, DW.ref.__gxx_personality_v0
	.cfi_lsda 27, .Lexception8
# %bb.0:
	pushq	%rbp
	.cfi_def_cfa_offset 16
	.cfi_offset %rbp, -16
	movq	%rsp, %rbp
	.cfi_def_cfa_register %rbp
	subq	$192, %rsp
	movq	%fs:40, %rax
	movq	%rax, -8(%rbp)
	movq	%rsi, -16(%rbp)
	movq	%rdi, -32(%rbp)
	movq	%rdx, -40(%rbp)
	movq	-32(%rbp), %rax
	leaq	.L.str(%rip), %rdx
	movl	$1, %esi
	movq	%rax, %rdi
	movq	%rax, -112(%rbp)                # 8-byte Spill
	callq	_ZNKSt6vectorINSt7__cxx1112basic_stringIcSt11char_traitsIcESaIcEEESaIS5_EE12_M_check_lenEmPKc
	movq	%rax, -48(%rbp)
	movq	-112(%rbp), %rax                # 8-byte Reload
	movq	(%rax), %rcx
	movq	%rcx, -56(%rbp)
	movq	8(%rax), %rcx
	movq	%rcx, -64(%rbp)
	movq	%rax, %rdi
	callq	_ZNSt6vectorINSt7__cxx1112basic_stringIcSt11char_traitsIcESaIcEEESaIS5_EE5beginEv
	movq	%rax, -24(%rbp)
	leaq	-16(%rbp), %rdi
	leaq	-24(%rbp), %rsi
	callq	_ZN9__gnu_cxxmiIPNSt7__cxx1112basic_stringIcSt11char_traitsIcESaIcEEESt6vectorIS6_SaIS6_EEEENS_17__normal_iteratorIT_T0_E15difference_typeERKSE_SH_
	movq	%rax, -72(%rbp)
	movq	-48(%rbp), %rsi
	movq	-112(%rbp), %rdi                # 8-byte Reload
	callq	_ZNSt12_Vector_baseINSt7__cxx1112basic_stringIcSt11char_traitsIcESaIcEEESaIS5_EE11_M_allocateEm
	movq	%rax, -80(%rbp)
	movq	-80(%rbp), %rax
	movq	%rax, -88(%rbp)
	movq	-80(%rbp), %rax
	movq	-72(%rbp), %rcx
	shlq	$5, %rcx
	addq	%rcx, %rax
	movq	-40(%rbp), %rdi
	movq	%rax, -120(%rbp)                # 8-byte Spill
	callq	_ZSt7forwardIRKNSt7__cxx1112basic_stringIcSt11char_traitsIcESaIcEEEEOT_RNSt16remove_referenceIS8_E4typeE
.Ltmp58:
	movq	-112(%rbp), %rdi                # 8-byte Reload
	movq	-120(%rbp), %rsi                # 8-byte Reload
	movq	%rax, %rdx
	callq	_ZNSt16allocator_traitsISaINSt7__cxx1112basic_stringIcSt11char_traitsIcESaIcEEEEE9constructIS5_JRKS5_EEEvRS6_PT_DpOT0_
.Ltmp59:
	jmp	.LBB51_1
.LBB51_1:
	movq	$0, -88(%rbp)
	movq	-56(%rbp), %rdi
	leaq	-16(%rbp), %rax
	movq	%rdi, -128(%rbp)                # 8-byte Spill
	movq	%rax, %rdi
	callq	_ZNK9__gnu_cxx17__normal_iteratorIPNSt7__cxx1112basic_stringIcSt11char_traitsIcESaIcEEESt6vectorIS6_SaIS6_EEE4baseEv
	movq	(%rax), %rsi
	movq	-80(%rbp), %rdx
	movq	-112(%rbp), %rax                # 8-byte Reload
	movq	%rax, %rdi
	movq	%rsi, -136(%rbp)                # 8-byte Spill
	movq	%rdx, -144(%rbp)                # 8-byte Spill
	callq	_ZNSt12_Vector_baseINSt7__cxx1112basic_stringIcSt11char_traitsIcESaIcEEESaIS5_EE19_M_get_Tp_allocatorEv
	movq	-128(%rbp), %rdi                # 8-byte Reload
	movq	-136(%rbp), %rsi                # 8-byte Reload
	movq	-144(%rbp), %rdx                # 8-byte Reload
	movq	%rax, %rcx
	callq	_ZNSt6vectorINSt7__cxx1112basic_stringIcSt11char_traitsIcESaIcEEESaIS5_EE11_S_relocateEPS5_S8_S8_RS6_
	movq	%rax, -88(%rbp)
	movq	-88(%rbp), %rax
	addq	$32, %rax
	movq	%rax, -88(%rbp)
	leaq	-16(%rbp), %rdi
	callq	_ZNK9__gnu_cxx17__normal_iteratorIPNSt7__cxx1112basic_stringIcSt11char_traitsIcESaIcEEESt6vectorIS6_SaIS6_EEE4baseEv
	movq	(%rax), %rdi
	movq	-64(%rbp), %rsi
	movq	-88(%rbp), %rdx
	movq	-112(%rbp), %rax                # 8-byte Reload
	movq	%rdi, -152(%rbp)                # 8-byte Spill
	movq	%rax, %rdi
	movq	%rsi, -160(%rbp)                # 8-byte Spill
	movq	%rdx, -168(%rbp)                # 8-byte Spill
	callq	_ZNSt12_Vector_baseINSt7__cxx1112basic_stringIcSt11char_traitsIcESaIcEEESaIS5_EE19_M_get_Tp_allocatorEv
	movq	-152(%rbp), %rdi                # 8-byte Reload
	movq	-160(%rbp), %rsi                # 8-byte Reload
	movq	-168(%rbp), %rdx                # 8-byte Reload
	movq	%rax, %rcx
	callq	_ZNSt6vectorINSt7__cxx1112basic_stringIcSt11char_traitsIcESaIcEEESaIS5_EE11_S_relocateEPS5_S8_S8_RS6_
	movq	%rax, -88(%rbp)
	jmp	.LBB51_11
.LBB51_2:
.Ltmp60:
                                        # kill: def $edx killed $edx killed $rdx
	movq	%rax, -96(%rbp)
	movl	%edx, -100(%rbp)
# %bb.3:
	movq	-96(%rbp), %rdi
	callq	__cxa_begin_catch@PLT
	cmpq	$0, -88(%rbp)
	jne	.LBB51_5
# %bb.4:
	movq	-112(%rbp), %rax                # 8-byte Reload
	movq	-80(%rbp), %rcx
	movq	-72(%rbp), %rdx
	shlq	$5, %rdx
	addq	%rdx, %rcx
	movq	%rax, %rdi
	movq	%rcx, %rsi
	callq	_ZNSt16allocator_traitsISaINSt7__cxx1112basic_stringIcSt11char_traitsIcESaIcEEEEE7destroyIS5_EEvRS6_PT_
	jmp	.LBB51_8
.LBB51_5:
	movq	-80(%rbp), %rdi
	movq	-88(%rbp), %rsi
	movq	-112(%rbp), %rax                # 8-byte Reload
	movq	%rdi, -176(%rbp)                # 8-byte Spill
	movq	%rax, %rdi
	movq	%rsi, -184(%rbp)                # 8-byte Spill
	callq	_ZNSt12_Vector_baseINSt7__cxx1112basic_stringIcSt11char_traitsIcESaIcEEESaIS5_EE19_M_get_Tp_allocatorEv
.Ltmp61:
	movq	-176(%rbp), %rdi                # 8-byte Reload
	movq	-184(%rbp), %rsi                # 8-byte Reload
	movq	%rax, %rdx
	callq	_ZSt8_DestroyIPNSt7__cxx1112basic_stringIcSt11char_traitsIcESaIcEEES5_EvT_S7_RSaIT0_E
.Ltmp62:
	jmp	.LBB51_6
.LBB51_6:
	jmp	.LBB51_8
.LBB51_7:
.Ltmp67:
                                        # kill: def $edx killed $edx killed $rdx
	movq	%rax, -96(%rbp)
	movl	%edx, -100(%rbp)
.Ltmp68:
	callq	__cxa_end_catch@PLT
.Ltmp69:
	jmp	.LBB51_10
.LBB51_8:
	movq	-80(%rbp), %rsi
	movq	-48(%rbp), %rdx
.Ltmp63:
	movq	-112(%rbp), %rdi                # 8-byte Reload
	callq	_ZNSt12_Vector_baseINSt7__cxx1112basic_stringIcSt11char_traitsIcESaIcEEESaIS5_EE13_M_deallocateEPS5_m
.Ltmp64:
	jmp	.LBB51_9
.LBB51_9:
.Ltmp65:
	callq	__cxa_rethrow@PLT
.Ltmp66:
	jmp	.LBB51_15
.LBB51_10:
	jmp	.LBB51_13
.LBB51_11:
	movq	-56(%rbp), %rax
	movq	-112(%rbp), %rcx                # 8-byte Reload
	movq	16(%rcx), %rdx
	subq	%rax, %rdx
	sarq	$5, %rdx
	movq	%rcx, %rdi
	movq	%rax, %rsi
	callq	_ZNSt12_Vector_baseINSt7__cxx1112basic_stringIcSt11char_traitsIcESaIcEEESaIS5_EE13_M_deallocateEPS5_m
	movq	-80(%rbp), %rax
	movq	-112(%rbp), %rcx                # 8-byte Reload
	movq	%rax, (%rcx)
	movq	-88(%rbp), %rax
	movq	%rax, 8(%rcx)
	movq	-80(%rbp), %rax
	movq	-48(%rbp), %rdx
	shlq	$5, %rdx
	addq	%rdx, %rax
	movq	%rax, 16(%rcx)
	movq	%fs:40, %rax
	movq	-8(%rbp), %rdx
	cmpq	%rdx, %rax
	jne	.LBB51_16
# %bb.12:
	addq	$192, %rsp
	popq	%rbp
	.cfi_def_cfa %rsp, 8
	retq
.LBB51_13:
	.cfi_def_cfa %rbp, 16
	movq	-96(%rbp), %rdi
	callq	_Unwind_Resume@PLT
.LBB51_14:
.Ltmp70:
                                        # kill: def $edx killed $edx killed $rdx
	movq	%rax, %rdi
	movl	%edx, -188(%rbp)                # 4-byte Spill
	callq	__clang_call_terminate
.LBB51_15:
.LBB51_16:
	callq	__stack_chk_fail@PLT
.Lfunc_end51:
	.size	_ZNSt6vectorINSt7__cxx1112basic_stringIcSt11char_traitsIcESaIcEEESaIS5_EE17_M_realloc_insertIJRKS5_EEEvN9__gnu_cxx17__normal_iteratorIPS5_S7_EEDpOT_, .Lfunc_end51-_ZNSt6vectorINSt7__cxx1112basic_stringIcSt11char_traitsIcESaIcEEESaIS5_EE17_M_realloc_insertIJRKS5_EEEvN9__gnu_cxx17__normal_iteratorIPS5_S7_EEDpOT_
	.cfi_endproc
	.section	.gcc_except_table,"a",@progbits
	.p2align	2
GCC_except_table51:
.Lexception8:
	.byte	255                             # @LPStart Encoding = omit
	.byte	156                             # @TType Encoding = indirect pcrel sdata8
	.uleb128 .Lttbase2-.Lttbaseref2
.Lttbaseref2:
	.byte	1                               # Call site Encoding = uleb128
	.uleb128 .Lcst_end8-.Lcst_begin8
.Lcst_begin8:
	.uleb128 .Lfunc_begin8-.Lfunc_begin8    # >> Call Site 1 <<
	.uleb128 .Ltmp58-.Lfunc_begin8          #   Call between .Lfunc_begin8 and .Ltmp58
	.byte	0                               #     has no landing pad
	.byte	0                               #   On action: cleanup
	.uleb128 .Ltmp58-.Lfunc_begin8          # >> Call Site 2 <<
	.uleb128 .Ltmp59-.Ltmp58                #   Call between .Ltmp58 and .Ltmp59
	.uleb128 .Ltmp60-.Lfunc_begin8          #     jumps to .Ltmp60
	.byte	1                               #   On action: 1
	.uleb128 .Ltmp59-.Lfunc_begin8          # >> Call Site 3 <<
	.uleb128 .Ltmp61-.Ltmp59                #   Call between .Ltmp59 and .Ltmp61
	.byte	0                               #     has no landing pad
	.byte	0                               #   On action: cleanup
	.uleb128 .Ltmp61-.Lfunc_begin8          # >> Call Site 4 <<
	.uleb128 .Ltmp62-.Ltmp61                #   Call between .Ltmp61 and .Ltmp62
	.uleb128 .Ltmp67-.Lfunc_begin8          #     jumps to .Ltmp67
	.byte	0                               #   On action: cleanup
	.uleb128 .Ltmp68-.Lfunc_begin8          # >> Call Site 5 <<
	.uleb128 .Ltmp69-.Ltmp68                #   Call between .Ltmp68 and .Ltmp69
	.uleb128 .Ltmp70-.Lfunc_begin8          #     jumps to .Ltmp70
	.byte	1                               #   On action: 1
	.uleb128 .Ltmp63-.Lfunc_begin8          # >> Call Site 6 <<
	.uleb128 .Ltmp66-.Ltmp63                #   Call between .Ltmp63 and .Ltmp66
	.uleb128 .Ltmp67-.Lfunc_begin8          #     jumps to .Ltmp67
	.byte	0                               #   On action: cleanup
	.uleb128 .Ltmp66-.Lfunc_begin8          # >> Call Site 7 <<
	.uleb128 .Lfunc_end51-.Ltmp66           #   Call between .Ltmp66 and .Lfunc_end51
	.byte	0                               #     has no landing pad
	.byte	0                               #   On action: cleanup
.Lcst_end8:
	.byte	1                               # >> Action Record 1 <<
                                        #   Catch TypeInfo 1
	.byte	0                               #   No further actions
	.p2align	2
                                        # >> Catch TypeInfos <<
	.quad	0                               # TypeInfo 1
.Lttbase2:
	.p2align	2
                                        # -- End function
	.section	.text._ZNSt6vectorINSt7__cxx1112basic_stringIcSt11char_traitsIcESaIcEEESaIS5_EE3endEv,"axG",@progbits,_ZNSt6vectorINSt7__cxx1112basic_stringIcSt11char_traitsIcESaIcEEESaIS5_EE3endEv,comdat
	.weak	_ZNSt6vectorINSt7__cxx1112basic_stringIcSt11char_traitsIcESaIcEEESaIS5_EE3endEv # -- Begin function _ZNSt6vectorINSt7__cxx1112basic_stringIcSt11char_traitsIcESaIcEEESaIS5_EE3endEv
	.p2align	4, 0x90
	.type	_ZNSt6vectorINSt7__cxx1112basic_stringIcSt11char_traitsIcESaIcEEESaIS5_EE3endEv,@function
_ZNSt6vectorINSt7__cxx1112basic_stringIcSt11char_traitsIcESaIcEEESaIS5_EE3endEv: # @_ZNSt6vectorINSt7__cxx1112basic_stringIcSt11char_traitsIcESaIcEEESaIS5_EE3endEv
	.cfi_startproc
# %bb.0:
	pushq	%rbp
	.cfi_def_cfa_offset 16
	.cfi_offset %rbp, -16
	movq	%rsp, %rbp
	.cfi_def_cfa_register %rbp
	subq	$32, %rsp
	movq	%fs:40, %rax
	movq	%rax, -8(%rbp)
	movq	%rdi, -24(%rbp)
	movq	-24(%rbp), %rax
	addq	$8, %rax
	leaq	-16(%rbp), %rdi
	movq	%rax, %rsi
	callq	_ZN9__gnu_cxx17__normal_iteratorIPNSt7__cxx1112basic_stringIcSt11char_traitsIcESaIcEEESt6vectorIS6_SaIS6_EEEC2ERKS7_
	movq	-16(%rbp), %rax
	movq	%fs:40, %rcx
	movq	-8(%rbp), %rdx
	cmpq	%rdx, %rcx
	movq	%rax, -32(%rbp)                 # 8-byte Spill
	jne	.LBB52_2
# %bb.1:
	movq	-32(%rbp), %rax                 # 8-byte Reload
	addq	$32, %rsp
	popq	%rbp
	.cfi_def_cfa %rsp, 8
	retq
.LBB52_2:
	.cfi_def_cfa %rbp, 16
	callq	__stack_chk_fail@PLT
.Lfunc_end52:
	.size	_ZNSt6vectorINSt7__cxx1112basic_stringIcSt11char_traitsIcESaIcEEESaIS5_EE3endEv, .Lfunc_end52-_ZNSt6vectorINSt7__cxx1112basic_stringIcSt11char_traitsIcESaIcEEESaIS5_EE3endEv
	.cfi_endproc
                                        # -- End function
	.section	.text._ZN9__gnu_cxx13new_allocatorINSt7__cxx1112basic_stringIcSt11char_traitsIcESaIcEEEE9constructIS6_JRKS6_EEEvPT_DpOT0_,"axG",@progbits,_ZN9__gnu_cxx13new_allocatorINSt7__cxx1112basic_stringIcSt11char_traitsIcESaIcEEEE9constructIS6_JRKS6_EEEvPT_DpOT0_,comdat
	.weak	_ZN9__gnu_cxx13new_allocatorINSt7__cxx1112basic_stringIcSt11char_traitsIcESaIcEEEE9constructIS6_JRKS6_EEEvPT_DpOT0_ # -- Begin function _ZN9__gnu_cxx13new_allocatorINSt7__cxx1112basic_stringIcSt11char_traitsIcESaIcEEEE9constructIS6_JRKS6_EEEvPT_DpOT0_
	.p2align	4, 0x90
	.type	_ZN9__gnu_cxx13new_allocatorINSt7__cxx1112basic_stringIcSt11char_traitsIcESaIcEEEE9constructIS6_JRKS6_EEEvPT_DpOT0_,@function
_ZN9__gnu_cxx13new_allocatorINSt7__cxx1112basic_stringIcSt11char_traitsIcESaIcEEEE9constructIS6_JRKS6_EEEvPT_DpOT0_: # @_ZN9__gnu_cxx13new_allocatorINSt7__cxx1112basic_stringIcSt11char_traitsIcESaIcEEEE9constructIS6_JRKS6_EEEvPT_DpOT0_
	.cfi_startproc
# %bb.0:
	pushq	%rbp
	.cfi_def_cfa_offset 16
	.cfi_offset %rbp, -16
	movq	%rsp, %rbp
	.cfi_def_cfa_register %rbp
	subq	$32, %rsp
	movq	%rdi, -8(%rbp)
	movq	%rsi, -16(%rbp)
	movq	%rdx, -24(%rbp)
	movq	-16(%rbp), %rax
	movq	-24(%rbp), %rdi
	movq	%rax, -32(%rbp)                 # 8-byte Spill
	callq	_ZSt7forwardIRKNSt7__cxx1112basic_stringIcSt11char_traitsIcESaIcEEEEOT_RNSt16remove_referenceIS8_E4typeE
	movq	-32(%rbp), %rdi                 # 8-byte Reload
	movq	%rax, %rsi
	callq	_ZNSt7__cxx1112basic_stringIcSt11char_traitsIcESaIcEEC1ERKS4_@PLT
	addq	$32, %rsp
	popq	%rbp
	.cfi_def_cfa %rsp, 8
	retq
.Lfunc_end53:
	.size	_ZN9__gnu_cxx13new_allocatorINSt7__cxx1112basic_stringIcSt11char_traitsIcESaIcEEEE9constructIS6_JRKS6_EEEvPT_DpOT0_, .Lfunc_end53-_ZN9__gnu_cxx13new_allocatorINSt7__cxx1112basic_stringIcSt11char_traitsIcESaIcEEEE9constructIS6_JRKS6_EEEvPT_DpOT0_
	.cfi_endproc
                                        # -- End function
	.section	.text._ZSt7forwardIRKNSt7__cxx1112basic_stringIcSt11char_traitsIcESaIcEEEEOT_RNSt16remove_referenceIS8_E4typeE,"axG",@progbits,_ZSt7forwardIRKNSt7__cxx1112basic_stringIcSt11char_traitsIcESaIcEEEEOT_RNSt16remove_referenceIS8_E4typeE,comdat
	.weak	_ZSt7forwardIRKNSt7__cxx1112basic_stringIcSt11char_traitsIcESaIcEEEEOT_RNSt16remove_referenceIS8_E4typeE # -- Begin function _ZSt7forwardIRKNSt7__cxx1112basic_stringIcSt11char_traitsIcESaIcEEEEOT_RNSt16remove_referenceIS8_E4typeE
	.p2align	4, 0x90
	.type	_ZSt7forwardIRKNSt7__cxx1112basic_stringIcSt11char_traitsIcESaIcEEEEOT_RNSt16remove_referenceIS8_E4typeE,@function
_ZSt7forwardIRKNSt7__cxx1112basic_stringIcSt11char_traitsIcESaIcEEEEOT_RNSt16remove_referenceIS8_E4typeE: # @_ZSt7forwardIRKNSt7__cxx1112basic_stringIcSt11char_traitsIcESaIcEEEEOT_RNSt16remove_referenceIS8_E4typeE
	.cfi_startproc
# %bb.0:
	pushq	%rbp
	.cfi_def_cfa_offset 16
	.cfi_offset %rbp, -16
	movq	%rsp, %rbp
	.cfi_def_cfa_register %rbp
	movq	%rdi, -8(%rbp)
	movq	-8(%rbp), %rax
	popq	%rbp
	.cfi_def_cfa %rsp, 8
	retq
.Lfunc_end54:
	.size	_ZSt7forwardIRKNSt7__cxx1112basic_stringIcSt11char_traitsIcESaIcEEEEOT_RNSt16remove_referenceIS8_E4typeE, .Lfunc_end54-_ZSt7forwardIRKNSt7__cxx1112basic_stringIcSt11char_traitsIcESaIcEEEEOT_RNSt16remove_referenceIS8_E4typeE
	.cfi_endproc
                                        # -- End function
	.section	.text._ZNKSt6vectorINSt7__cxx1112basic_stringIcSt11char_traitsIcESaIcEEESaIS5_EE12_M_check_lenEmPKc,"axG",@progbits,_ZNKSt6vectorINSt7__cxx1112basic_stringIcSt11char_traitsIcESaIcEEESaIS5_EE12_M_check_lenEmPKc,comdat
	.weak	_ZNKSt6vectorINSt7__cxx1112basic_stringIcSt11char_traitsIcESaIcEEESaIS5_EE12_M_check_lenEmPKc # -- Begin function _ZNKSt6vectorINSt7__cxx1112basic_stringIcSt11char_traitsIcESaIcEEESaIS5_EE12_M_check_lenEmPKc
	.p2align	4, 0x90
	.type	_ZNKSt6vectorINSt7__cxx1112basic_stringIcSt11char_traitsIcESaIcEEESaIS5_EE12_M_check_lenEmPKc,@function
_ZNKSt6vectorINSt7__cxx1112basic_stringIcSt11char_traitsIcESaIcEEESaIS5_EE12_M_check_lenEmPKc: # @_ZNKSt6vectorINSt7__cxx1112basic_stringIcSt11char_traitsIcESaIcEEESaIS5_EE12_M_check_lenEmPKc
	.cfi_startproc
# %bb.0:
	pushq	%rbp
	.cfi_def_cfa_offset 16
	.cfi_offset %rbp, -16
	movq	%rsp, %rbp
	.cfi_def_cfa_register %rbp
	subq	$112, %rsp
	movq	%fs:40, %rax
	movq	%rax, -8(%rbp)
	movq	%rdi, -32(%rbp)
	movq	%rsi, -16(%rbp)
	movq	%rdx, -40(%rbp)
	movq	-32(%rbp), %rax
	movq	%rax, %rdi
	movq	%rax, -56(%rbp)                 # 8-byte Spill
	callq	_ZNKSt6vectorINSt7__cxx1112basic_stringIcSt11char_traitsIcESaIcEEESaIS5_EE8max_sizeEv
	movq	-56(%rbp), %rdi                 # 8-byte Reload
	movq	%rax, -64(%rbp)                 # 8-byte Spill
	callq	_ZNKSt6vectorINSt7__cxx1112basic_stringIcSt11char_traitsIcESaIcEEESaIS5_EE4sizeEv
	movq	-64(%rbp), %rcx                 # 8-byte Reload
	subq	%rax, %rcx
	cmpq	-16(%rbp), %rcx
	jae	.LBB55_2
# %bb.1:
	movq	-40(%rbp), %rdi
	callq	_ZSt20__throw_length_errorPKc@PLT
.LBB55_2:
	movq	-56(%rbp), %rdi                 # 8-byte Reload
	callq	_ZNKSt6vectorINSt7__cxx1112basic_stringIcSt11char_traitsIcESaIcEEESaIS5_EE4sizeEv
	movq	-56(%rbp), %rdi                 # 8-byte Reload
	movq	%rax, -72(%rbp)                 # 8-byte Spill
	callq	_ZNKSt6vectorINSt7__cxx1112basic_stringIcSt11char_traitsIcESaIcEEESaIS5_EE4sizeEv
	movq	%rax, -24(%rbp)
	leaq	-24(%rbp), %rdi
	leaq	-16(%rbp), %rsi
	callq	_ZSt3maxImERKT_S2_S2_
	movq	-72(%rbp), %rcx                 # 8-byte Reload
	addq	(%rax), %rcx
	movq	%rcx, -48(%rbp)
	movq	-48(%rbp), %rax
	movq	-56(%rbp), %rdi                 # 8-byte Reload
	movq	%rax, -80(%rbp)                 # 8-byte Spill
	callq	_ZNKSt6vectorINSt7__cxx1112basic_stringIcSt11char_traitsIcESaIcEEESaIS5_EE4sizeEv
	movq	-80(%rbp), %rcx                 # 8-byte Reload
	cmpq	%rax, %rcx
	jb	.LBB55_4
# %bb.3:
	movq	-48(%rbp), %rax
	movq	-56(%rbp), %rdi                 # 8-byte Reload
	movq	%rax, -88(%rbp)                 # 8-byte Spill
	callq	_ZNKSt6vectorINSt7__cxx1112basic_stringIcSt11char_traitsIcESaIcEEESaIS5_EE8max_sizeEv
	movq	-88(%rbp), %rcx                 # 8-byte Reload
	cmpq	%rax, %rcx
	jbe	.LBB55_5
.LBB55_4:
	movq	-56(%rbp), %rdi                 # 8-byte Reload
	callq	_ZNKSt6vectorINSt7__cxx1112basic_stringIcSt11char_traitsIcESaIcEEESaIS5_EE8max_sizeEv
	movq	%rax, -96(%rbp)                 # 8-byte Spill
	jmp	.LBB55_6
.LBB55_5:
	movq	-48(%rbp), %rax
	movq	%rax, -96(%rbp)                 # 8-byte Spill
.LBB55_6:
	movq	-96(%rbp), %rax                 # 8-byte Reload
	movq	%fs:40, %rcx
	movq	-8(%rbp), %rdx
	cmpq	%rdx, %rcx
	movq	%rax, -104(%rbp)                # 8-byte Spill
	jne	.LBB55_8
# %bb.7:
	movq	-104(%rbp), %rax                # 8-byte Reload
	addq	$112, %rsp
	popq	%rbp
	.cfi_def_cfa %rsp, 8
	retq
.LBB55_8:
	.cfi_def_cfa %rbp, 16
	callq	__stack_chk_fail@PLT
.Lfunc_end55:
	.size	_ZNKSt6vectorINSt7__cxx1112basic_stringIcSt11char_traitsIcESaIcEEESaIS5_EE12_M_check_lenEmPKc, .Lfunc_end55-_ZNKSt6vectorINSt7__cxx1112basic_stringIcSt11char_traitsIcESaIcEEESaIS5_EE12_M_check_lenEmPKc
	.cfi_endproc
                                        # -- End function
	.section	.text._ZN9__gnu_cxxmiIPNSt7__cxx1112basic_stringIcSt11char_traitsIcESaIcEEESt6vectorIS6_SaIS6_EEEENS_17__normal_iteratorIT_T0_E15difference_typeERKSE_SH_,"axG",@progbits,_ZN9__gnu_cxxmiIPNSt7__cxx1112basic_stringIcSt11char_traitsIcESaIcEEESt6vectorIS6_SaIS6_EEEENS_17__normal_iteratorIT_T0_E15difference_typeERKSE_SH_,comdat
	.weak	_ZN9__gnu_cxxmiIPNSt7__cxx1112basic_stringIcSt11char_traitsIcESaIcEEESt6vectorIS6_SaIS6_EEEENS_17__normal_iteratorIT_T0_E15difference_typeERKSE_SH_ # -- Begin function _ZN9__gnu_cxxmiIPNSt7__cxx1112basic_stringIcSt11char_traitsIcESaIcEEESt6vectorIS6_SaIS6_EEEENS_17__normal_iteratorIT_T0_E15difference_typeERKSE_SH_
	.p2align	4, 0x90
	.type	_ZN9__gnu_cxxmiIPNSt7__cxx1112basic_stringIcSt11char_traitsIcESaIcEEESt6vectorIS6_SaIS6_EEEENS_17__normal_iteratorIT_T0_E15difference_typeERKSE_SH_,@function
_ZN9__gnu_cxxmiIPNSt7__cxx1112basic_stringIcSt11char_traitsIcESaIcEEESt6vectorIS6_SaIS6_EEEENS_17__normal_iteratorIT_T0_E15difference_typeERKSE_SH_: # @_ZN9__gnu_cxxmiIPNSt7__cxx1112basic_stringIcSt11char_traitsIcESaIcEEESt6vectorIS6_SaIS6_EEEENS_17__normal_iteratorIT_T0_E15difference_typeERKSE_SH_
	.cfi_startproc
# %bb.0:
	pushq	%rbp
	.cfi_def_cfa_offset 16
	.cfi_offset %rbp, -16
	movq	%rsp, %rbp
	.cfi_def_cfa_register %rbp
	subq	$32, %rsp
	movq	%rdi, -8(%rbp)
	movq	%rsi, -16(%rbp)
	movq	-8(%rbp), %rdi
	callq	_ZNK9__gnu_cxx17__normal_iteratorIPNSt7__cxx1112basic_stringIcSt11char_traitsIcESaIcEEESt6vectorIS6_SaIS6_EEE4baseEv
	movq	(%rax), %rax
	movq	-16(%rbp), %rdi
	movq	%rax, -24(%rbp)                 # 8-byte Spill
	callq	_ZNK9__gnu_cxx17__normal_iteratorIPNSt7__cxx1112basic_stringIcSt11char_traitsIcESaIcEEESt6vectorIS6_SaIS6_EEE4baseEv
	movq	(%rax), %rax
	movq	-24(%rbp), %rcx                 # 8-byte Reload
	subq	%rax, %rcx
	sarq	$5, %rcx
	movq	%rcx, %rax
	addq	$32, %rsp
	popq	%rbp
	.cfi_def_cfa %rsp, 8
	retq
.Lfunc_end56:
	.size	_ZN9__gnu_cxxmiIPNSt7__cxx1112basic_stringIcSt11char_traitsIcESaIcEEESt6vectorIS6_SaIS6_EEEENS_17__normal_iteratorIT_T0_E15difference_typeERKSE_SH_, .Lfunc_end56-_ZN9__gnu_cxxmiIPNSt7__cxx1112basic_stringIcSt11char_traitsIcESaIcEEESt6vectorIS6_SaIS6_EEEENS_17__normal_iteratorIT_T0_E15difference_typeERKSE_SH_
	.cfi_endproc
                                        # -- End function
	.section	.text._ZNSt6vectorINSt7__cxx1112basic_stringIcSt11char_traitsIcESaIcEEESaIS5_EE5beginEv,"axG",@progbits,_ZNSt6vectorINSt7__cxx1112basic_stringIcSt11char_traitsIcESaIcEEESaIS5_EE5beginEv,comdat
	.weak	_ZNSt6vectorINSt7__cxx1112basic_stringIcSt11char_traitsIcESaIcEEESaIS5_EE5beginEv # -- Begin function _ZNSt6vectorINSt7__cxx1112basic_stringIcSt11char_traitsIcESaIcEEESaIS5_EE5beginEv
	.p2align	4, 0x90
	.type	_ZNSt6vectorINSt7__cxx1112basic_stringIcSt11char_traitsIcESaIcEEESaIS5_EE5beginEv,@function
_ZNSt6vectorINSt7__cxx1112basic_stringIcSt11char_traitsIcESaIcEEESaIS5_EE5beginEv: # @_ZNSt6vectorINSt7__cxx1112basic_stringIcSt11char_traitsIcESaIcEEESaIS5_EE5beginEv
	.cfi_startproc
# %bb.0:
	pushq	%rbp
	.cfi_def_cfa_offset 16
	.cfi_offset %rbp, -16
	movq	%rsp, %rbp
	.cfi_def_cfa_register %rbp
	subq	$32, %rsp
	movq	%fs:40, %rax
	movq	%rax, -8(%rbp)
	movq	%rdi, -24(%rbp)
	movq	-24(%rbp), %rsi
	leaq	-16(%rbp), %rdi
	callq	_ZN9__gnu_cxx17__normal_iteratorIPNSt7__cxx1112basic_stringIcSt11char_traitsIcESaIcEEESt6vectorIS6_SaIS6_EEEC2ERKS7_
	movq	-16(%rbp), %rax
	movq	%fs:40, %rcx
	movq	-8(%rbp), %rdx
	cmpq	%rdx, %rcx
	movq	%rax, -32(%rbp)                 # 8-byte Spill
	jne	.LBB57_2
# %bb.1:
	movq	-32(%rbp), %rax                 # 8-byte Reload
	addq	$32, %rsp
	popq	%rbp
	.cfi_def_cfa %rsp, 8
	retq
.LBB57_2:
	.cfi_def_cfa %rbp, 16
	callq	__stack_chk_fail@PLT
.Lfunc_end57:
	.size	_ZNSt6vectorINSt7__cxx1112basic_stringIcSt11char_traitsIcESaIcEEESaIS5_EE5beginEv, .Lfunc_end57-_ZNSt6vectorINSt7__cxx1112basic_stringIcSt11char_traitsIcESaIcEEESaIS5_EE5beginEv
	.cfi_endproc
                                        # -- End function
	.section	.text._ZNSt12_Vector_baseINSt7__cxx1112basic_stringIcSt11char_traitsIcESaIcEEESaIS5_EE11_M_allocateEm,"axG",@progbits,_ZNSt12_Vector_baseINSt7__cxx1112basic_stringIcSt11char_traitsIcESaIcEEESaIS5_EE11_M_allocateEm,comdat
	.weak	_ZNSt12_Vector_baseINSt7__cxx1112basic_stringIcSt11char_traitsIcESaIcEEESaIS5_EE11_M_allocateEm # -- Begin function _ZNSt12_Vector_baseINSt7__cxx1112basic_stringIcSt11char_traitsIcESaIcEEESaIS5_EE11_M_allocateEm
	.p2align	4, 0x90
	.type	_ZNSt12_Vector_baseINSt7__cxx1112basic_stringIcSt11char_traitsIcESaIcEEESaIS5_EE11_M_allocateEm,@function
_ZNSt12_Vector_baseINSt7__cxx1112basic_stringIcSt11char_traitsIcESaIcEEESaIS5_EE11_M_allocateEm: # @_ZNSt12_Vector_baseINSt7__cxx1112basic_stringIcSt11char_traitsIcESaIcEEESaIS5_EE11_M_allocateEm
	.cfi_startproc
# %bb.0:
	pushq	%rbp
	.cfi_def_cfa_offset 16
	.cfi_offset %rbp, -16
	movq	%rsp, %rbp
	.cfi_def_cfa_register %rbp
	subq	$32, %rsp
	movq	%rdi, -8(%rbp)
	movq	%rsi, -16(%rbp)
	movq	-8(%rbp), %rax
	cmpq	$0, -16(%rbp)
	movq	%rax, -24(%rbp)                 # 8-byte Spill
	je	.LBB58_2
# %bb.1:
	movq	-24(%rbp), %rax                 # 8-byte Reload
	movq	-16(%rbp), %rsi
	movq	%rax, %rdi
	callq	_ZNSt16allocator_traitsISaINSt7__cxx1112basic_stringIcSt11char_traitsIcESaIcEEEEE8allocateERS6_m
	movq	%rax, -32(%rbp)                 # 8-byte Spill
	jmp	.LBB58_3
.LBB58_2:
	xorl	%eax, %eax
	movl	%eax, %ecx
	movq	%rcx, -32(%rbp)                 # 8-byte Spill
	jmp	.LBB58_3
.LBB58_3:
	movq	-32(%rbp), %rax                 # 8-byte Reload
	addq	$32, %rsp
	popq	%rbp
	.cfi_def_cfa %rsp, 8
	retq
.Lfunc_end58:
	.size	_ZNSt12_Vector_baseINSt7__cxx1112basic_stringIcSt11char_traitsIcESaIcEEESaIS5_EE11_M_allocateEm, .Lfunc_end58-_ZNSt12_Vector_baseINSt7__cxx1112basic_stringIcSt11char_traitsIcESaIcEEESaIS5_EE11_M_allocateEm
	.cfi_endproc
                                        # -- End function
	.section	.text._ZNSt6vectorINSt7__cxx1112basic_stringIcSt11char_traitsIcESaIcEEESaIS5_EE11_S_relocateEPS5_S8_S8_RS6_,"axG",@progbits,_ZNSt6vectorINSt7__cxx1112basic_stringIcSt11char_traitsIcESaIcEEESaIS5_EE11_S_relocateEPS5_S8_S8_RS6_,comdat
	.weak	_ZNSt6vectorINSt7__cxx1112basic_stringIcSt11char_traitsIcESaIcEEESaIS5_EE11_S_relocateEPS5_S8_S8_RS6_ # -- Begin function _ZNSt6vectorINSt7__cxx1112basic_stringIcSt11char_traitsIcESaIcEEESaIS5_EE11_S_relocateEPS5_S8_S8_RS6_
	.p2align	4, 0x90
	.type	_ZNSt6vectorINSt7__cxx1112basic_stringIcSt11char_traitsIcESaIcEEESaIS5_EE11_S_relocateEPS5_S8_S8_RS6_,@function
_ZNSt6vectorINSt7__cxx1112basic_stringIcSt11char_traitsIcESaIcEEESaIS5_EE11_S_relocateEPS5_S8_S8_RS6_: # @_ZNSt6vectorINSt7__cxx1112basic_stringIcSt11char_traitsIcESaIcEEESaIS5_EE11_S_relocateEPS5_S8_S8_RS6_
	.cfi_startproc
# %bb.0:
	pushq	%rbp
	.cfi_def_cfa_offset 16
	.cfi_offset %rbp, -16
	movq	%rsp, %rbp
	.cfi_def_cfa_register %rbp
	subq	$48, %rsp
	movq	%rdi, -8(%rbp)
	movq	%rsi, -16(%rbp)
	movq	%rdx, -24(%rbp)
	movq	%rcx, -32(%rbp)
	movq	-8(%rbp), %rdi
	movq	-16(%rbp), %rsi
	movq	-24(%rbp), %rdx
	movq	-32(%rbp), %rcx
	callq	_ZNSt6vectorINSt7__cxx1112basic_stringIcSt11char_traitsIcESaIcEEESaIS5_EE14_S_do_relocateEPS5_S8_S8_RS6_St17integral_constantIbLb1EE
	addq	$48, %rsp
	popq	%rbp
	.cfi_def_cfa %rsp, 8
	retq
.Lfunc_end59:
	.size	_ZNSt6vectorINSt7__cxx1112basic_stringIcSt11char_traitsIcESaIcEEESaIS5_EE11_S_relocateEPS5_S8_S8_RS6_, .Lfunc_end59-_ZNSt6vectorINSt7__cxx1112basic_stringIcSt11char_traitsIcESaIcEEESaIS5_EE11_S_relocateEPS5_S8_S8_RS6_
	.cfi_endproc
                                        # -- End function
	.section	.text._ZNK9__gnu_cxx17__normal_iteratorIPNSt7__cxx1112basic_stringIcSt11char_traitsIcESaIcEEESt6vectorIS6_SaIS6_EEE4baseEv,"axG",@progbits,_ZNK9__gnu_cxx17__normal_iteratorIPNSt7__cxx1112basic_stringIcSt11char_traitsIcESaIcEEESt6vectorIS6_SaIS6_EEE4baseEv,comdat
	.weak	_ZNK9__gnu_cxx17__normal_iteratorIPNSt7__cxx1112basic_stringIcSt11char_traitsIcESaIcEEESt6vectorIS6_SaIS6_EEE4baseEv # -- Begin function _ZNK9__gnu_cxx17__normal_iteratorIPNSt7__cxx1112basic_stringIcSt11char_traitsIcESaIcEEESt6vectorIS6_SaIS6_EEE4baseEv
	.p2align	4, 0x90
	.type	_ZNK9__gnu_cxx17__normal_iteratorIPNSt7__cxx1112basic_stringIcSt11char_traitsIcESaIcEEESt6vectorIS6_SaIS6_EEE4baseEv,@function
_ZNK9__gnu_cxx17__normal_iteratorIPNSt7__cxx1112basic_stringIcSt11char_traitsIcESaIcEEESt6vectorIS6_SaIS6_EEE4baseEv: # @_ZNK9__gnu_cxx17__normal_iteratorIPNSt7__cxx1112basic_stringIcSt11char_traitsIcESaIcEEESt6vectorIS6_SaIS6_EEE4baseEv
	.cfi_startproc
# %bb.0:
	pushq	%rbp
	.cfi_def_cfa_offset 16
	.cfi_offset %rbp, -16
	movq	%rsp, %rbp
	.cfi_def_cfa_register %rbp
	movq	%rdi, -8(%rbp)
	movq	-8(%rbp), %rax
	popq	%rbp
	.cfi_def_cfa %rsp, 8
	retq
.Lfunc_end60:
	.size	_ZNK9__gnu_cxx17__normal_iteratorIPNSt7__cxx1112basic_stringIcSt11char_traitsIcESaIcEEESt6vectorIS6_SaIS6_EEE4baseEv, .Lfunc_end60-_ZNK9__gnu_cxx17__normal_iteratorIPNSt7__cxx1112basic_stringIcSt11char_traitsIcESaIcEEESt6vectorIS6_SaIS6_EEE4baseEv
	.cfi_endproc
                                        # -- End function
	.section	.text._ZNSt16allocator_traitsISaINSt7__cxx1112basic_stringIcSt11char_traitsIcESaIcEEEEE7destroyIS5_EEvRS6_PT_,"axG",@progbits,_ZNSt16allocator_traitsISaINSt7__cxx1112basic_stringIcSt11char_traitsIcESaIcEEEEE7destroyIS5_EEvRS6_PT_,comdat
	.weak	_ZNSt16allocator_traitsISaINSt7__cxx1112basic_stringIcSt11char_traitsIcESaIcEEEEE7destroyIS5_EEvRS6_PT_ # -- Begin function _ZNSt16allocator_traitsISaINSt7__cxx1112basic_stringIcSt11char_traitsIcESaIcEEEEE7destroyIS5_EEvRS6_PT_
	.p2align	4, 0x90
	.type	_ZNSt16allocator_traitsISaINSt7__cxx1112basic_stringIcSt11char_traitsIcESaIcEEEEE7destroyIS5_EEvRS6_PT_,@function
_ZNSt16allocator_traitsISaINSt7__cxx1112basic_stringIcSt11char_traitsIcESaIcEEEEE7destroyIS5_EEvRS6_PT_: # @_ZNSt16allocator_traitsISaINSt7__cxx1112basic_stringIcSt11char_traitsIcESaIcEEEEE7destroyIS5_EEvRS6_PT_
	.cfi_startproc
# %bb.0:
	pushq	%rbp
	.cfi_def_cfa_offset 16
	.cfi_offset %rbp, -16
	movq	%rsp, %rbp
	.cfi_def_cfa_register %rbp
	subq	$16, %rsp
	movq	%rdi, -8(%rbp)
	movq	%rsi, -16(%rbp)
	movq	-8(%rbp), %rax
	movq	-16(%rbp), %rsi
	movq	%rax, %rdi
	callq	_ZN9__gnu_cxx13new_allocatorINSt7__cxx1112basic_stringIcSt11char_traitsIcESaIcEEEE7destroyIS6_EEvPT_
	addq	$16, %rsp
	popq	%rbp
	.cfi_def_cfa %rsp, 8
	retq
.Lfunc_end61:
	.size	_ZNSt16allocator_traitsISaINSt7__cxx1112basic_stringIcSt11char_traitsIcESaIcEEEEE7destroyIS5_EEvRS6_PT_, .Lfunc_end61-_ZNSt16allocator_traitsISaINSt7__cxx1112basic_stringIcSt11char_traitsIcESaIcEEEEE7destroyIS5_EEvRS6_PT_
	.cfi_endproc
                                        # -- End function
	.section	.text._ZNKSt6vectorINSt7__cxx1112basic_stringIcSt11char_traitsIcESaIcEEESaIS5_EE8max_sizeEv,"axG",@progbits,_ZNKSt6vectorINSt7__cxx1112basic_stringIcSt11char_traitsIcESaIcEEESaIS5_EE8max_sizeEv,comdat
	.weak	_ZNKSt6vectorINSt7__cxx1112basic_stringIcSt11char_traitsIcESaIcEEESaIS5_EE8max_sizeEv # -- Begin function _ZNKSt6vectorINSt7__cxx1112basic_stringIcSt11char_traitsIcESaIcEEESaIS5_EE8max_sizeEv
	.p2align	4, 0x90
	.type	_ZNKSt6vectorINSt7__cxx1112basic_stringIcSt11char_traitsIcESaIcEEESaIS5_EE8max_sizeEv,@function
_ZNKSt6vectorINSt7__cxx1112basic_stringIcSt11char_traitsIcESaIcEEESaIS5_EE8max_sizeEv: # @_ZNKSt6vectorINSt7__cxx1112basic_stringIcSt11char_traitsIcESaIcEEESaIS5_EE8max_sizeEv
	.cfi_startproc
# %bb.0:
	pushq	%rbp
	.cfi_def_cfa_offset 16
	.cfi_offset %rbp, -16
	movq	%rsp, %rbp
	.cfi_def_cfa_register %rbp
	subq	$16, %rsp
	movq	%rdi, -8(%rbp)
	movq	-8(%rbp), %rax
	movq	%rax, %rdi
	callq	_ZNKSt12_Vector_baseINSt7__cxx1112basic_stringIcSt11char_traitsIcESaIcEEESaIS5_EE19_M_get_Tp_allocatorEv
	movq	%rax, %rdi
	callq	_ZNSt6vectorINSt7__cxx1112basic_stringIcSt11char_traitsIcESaIcEEESaIS5_EE11_S_max_sizeERKS6_
	addq	$16, %rsp
	popq	%rbp
	.cfi_def_cfa %rsp, 8
	retq
.Lfunc_end62:
	.size	_ZNKSt6vectorINSt7__cxx1112basic_stringIcSt11char_traitsIcESaIcEEESaIS5_EE8max_sizeEv, .Lfunc_end62-_ZNKSt6vectorINSt7__cxx1112basic_stringIcSt11char_traitsIcESaIcEEESaIS5_EE8max_sizeEv
	.cfi_endproc
                                        # -- End function
	.section	.text._ZNKSt6vectorINSt7__cxx1112basic_stringIcSt11char_traitsIcESaIcEEESaIS5_EE4sizeEv,"axG",@progbits,_ZNKSt6vectorINSt7__cxx1112basic_stringIcSt11char_traitsIcESaIcEEESaIS5_EE4sizeEv,comdat
	.weak	_ZNKSt6vectorINSt7__cxx1112basic_stringIcSt11char_traitsIcESaIcEEESaIS5_EE4sizeEv # -- Begin function _ZNKSt6vectorINSt7__cxx1112basic_stringIcSt11char_traitsIcESaIcEEESaIS5_EE4sizeEv
	.p2align	4, 0x90
	.type	_ZNKSt6vectorINSt7__cxx1112basic_stringIcSt11char_traitsIcESaIcEEESaIS5_EE4sizeEv,@function
_ZNKSt6vectorINSt7__cxx1112basic_stringIcSt11char_traitsIcESaIcEEESaIS5_EE4sizeEv: # @_ZNKSt6vectorINSt7__cxx1112basic_stringIcSt11char_traitsIcESaIcEEESaIS5_EE4sizeEv
	.cfi_startproc
# %bb.0:
	pushq	%rbp
	.cfi_def_cfa_offset 16
	.cfi_offset %rbp, -16
	movq	%rsp, %rbp
	.cfi_def_cfa_register %rbp
	movq	%rdi, -8(%rbp)
	movq	-8(%rbp), %rax
	movq	8(%rax), %rcx
	movq	(%rax), %rax
	subq	%rax, %rcx
	sarq	$5, %rcx
	movq	%rcx, %rax
	popq	%rbp
	.cfi_def_cfa %rsp, 8
	retq
.Lfunc_end63:
	.size	_ZNKSt6vectorINSt7__cxx1112basic_stringIcSt11char_traitsIcESaIcEEESaIS5_EE4sizeEv, .Lfunc_end63-_ZNKSt6vectorINSt7__cxx1112basic_stringIcSt11char_traitsIcESaIcEEESaIS5_EE4sizeEv
	.cfi_endproc
                                        # -- End function
	.section	.text._ZSt3maxImERKT_S2_S2_,"axG",@progbits,_ZSt3maxImERKT_S2_S2_,comdat
	.weak	_ZSt3maxImERKT_S2_S2_           # -- Begin function _ZSt3maxImERKT_S2_S2_
	.p2align	4, 0x90
	.type	_ZSt3maxImERKT_S2_S2_,@function
_ZSt3maxImERKT_S2_S2_:                  # @_ZSt3maxImERKT_S2_S2_
	.cfi_startproc
# %bb.0:
	pushq	%rbp
	.cfi_def_cfa_offset 16
	.cfi_offset %rbp, -16
	movq	%rsp, %rbp
	.cfi_def_cfa_register %rbp
	movq	%rdi, -16(%rbp)
	movq	%rsi, -24(%rbp)
	movq	-16(%rbp), %rax
	movq	(%rax), %rax
	movq	-24(%rbp), %rcx
	cmpq	(%rcx), %rax
	jae	.LBB64_2
# %bb.1:
	movq	-24(%rbp), %rax
	movq	%rax, -8(%rbp)
	jmp	.LBB64_3
.LBB64_2:
	movq	-16(%rbp), %rax
	movq	%rax, -8(%rbp)
.LBB64_3:
	movq	-8(%rbp), %rax
	popq	%rbp
	.cfi_def_cfa %rsp, 8
	retq
.Lfunc_end64:
	.size	_ZSt3maxImERKT_S2_S2_, .Lfunc_end64-_ZSt3maxImERKT_S2_S2_
	.cfi_endproc
                                        # -- End function
	.section	.text._ZNSt6vectorINSt7__cxx1112basic_stringIcSt11char_traitsIcESaIcEEESaIS5_EE11_S_max_sizeERKS6_,"axG",@progbits,_ZNSt6vectorINSt7__cxx1112basic_stringIcSt11char_traitsIcESaIcEEESaIS5_EE11_S_max_sizeERKS6_,comdat
	.weak	_ZNSt6vectorINSt7__cxx1112basic_stringIcSt11char_traitsIcESaIcEEESaIS5_EE11_S_max_sizeERKS6_ # -- Begin function _ZNSt6vectorINSt7__cxx1112basic_stringIcSt11char_traitsIcESaIcEEESaIS5_EE11_S_max_sizeERKS6_
	.p2align	4, 0x90
	.type	_ZNSt6vectorINSt7__cxx1112basic_stringIcSt11char_traitsIcESaIcEEESaIS5_EE11_S_max_sizeERKS6_,@function
_ZNSt6vectorINSt7__cxx1112basic_stringIcSt11char_traitsIcESaIcEEESaIS5_EE11_S_max_sizeERKS6_: # @_ZNSt6vectorINSt7__cxx1112basic_stringIcSt11char_traitsIcESaIcEEESaIS5_EE11_S_max_sizeERKS6_
.Lfunc_begin9:
	.cfi_startproc
	.cfi_personality 155, DW.ref.__gxx_personality_v0
	.cfi_lsda 27, .Lexception9
# %bb.0:
	pushq	%rbp
	.cfi_def_cfa_offset 16
	.cfi_offset %rbp, -16
	movq	%rsp, %rbp
	.cfi_def_cfa_register %rbp
	subq	$64, %rsp
	movq	%fs:40, %rax
	movq	%rax, -8(%rbp)
	movq	%rdi, -32(%rbp)
	movabsq	$288230376151711743, %rax       # imm = 0x3FFFFFFFFFFFFFF
	movq	%rax, -16(%rbp)
	movq	-32(%rbp), %rdi
	callq	_ZNSt16allocator_traitsISaINSt7__cxx1112basic_stringIcSt11char_traitsIcESaIcEEEEE8max_sizeERKS6_
	movq	%rax, -24(%rbp)
.Ltmp71:
	leaq	-16(%rbp), %rdi
	leaq	-24(%rbp), %rsi
	callq	_ZSt3minImERKT_S2_S2_
.Ltmp72:
	movq	%rax, -40(%rbp)                 # 8-byte Spill
	jmp	.LBB65_1
.LBB65_1:
	movq	-40(%rbp), %rax                 # 8-byte Reload
	movq	(%rax), %rax
	movq	%fs:40, %rcx
	movq	-8(%rbp), %rdx
	cmpq	%rdx, %rcx
	movq	%rax, -48(%rbp)                 # 8-byte Spill
	jne	.LBB65_4
# %bb.2:
	movq	-48(%rbp), %rax                 # 8-byte Reload
	addq	$64, %rsp
	popq	%rbp
	.cfi_def_cfa %rsp, 8
	retq
.LBB65_3:
	.cfi_def_cfa %rbp, 16
.Ltmp73:
                                        # kill: def $edx killed $edx killed $rdx
	movq	%rax, %rdi
	movl	%edx, -52(%rbp)                 # 4-byte Spill
	callq	__clang_call_terminate
.LBB65_4:
	callq	__stack_chk_fail@PLT
.Lfunc_end65:
	.size	_ZNSt6vectorINSt7__cxx1112basic_stringIcSt11char_traitsIcESaIcEEESaIS5_EE11_S_max_sizeERKS6_, .Lfunc_end65-_ZNSt6vectorINSt7__cxx1112basic_stringIcSt11char_traitsIcESaIcEEESaIS5_EE11_S_max_sizeERKS6_
	.cfi_endproc
	.section	.gcc_except_table,"a",@progbits
	.p2align	2
GCC_except_table65:
.Lexception9:
	.byte	255                             # @LPStart Encoding = omit
	.byte	156                             # @TType Encoding = indirect pcrel sdata8
	.uleb128 .Lttbase3-.Lttbaseref3
.Lttbaseref3:
	.byte	1                               # Call site Encoding = uleb128
	.uleb128 .Lcst_end9-.Lcst_begin9
.Lcst_begin9:
	.uleb128 .Ltmp71-.Lfunc_begin9          # >> Call Site 1 <<
	.uleb128 .Ltmp72-.Ltmp71                #   Call between .Ltmp71 and .Ltmp72
	.uleb128 .Ltmp73-.Lfunc_begin9          #     jumps to .Ltmp73
	.byte	1                               #   On action: 1
	.uleb128 .Ltmp72-.Lfunc_begin9          # >> Call Site 2 <<
	.uleb128 .Lfunc_end65-.Ltmp72           #   Call between .Ltmp72 and .Lfunc_end65
	.byte	0                               #     has no landing pad
	.byte	0                               #   On action: cleanup
.Lcst_end9:
	.byte	1                               # >> Action Record 1 <<
                                        #   Catch TypeInfo 1
	.byte	0                               #   No further actions
	.p2align	2
                                        # >> Catch TypeInfos <<
	.quad	0                               # TypeInfo 1
.Lttbase3:
	.p2align	2
                                        # -- End function
	.section	.text._ZNKSt12_Vector_baseINSt7__cxx1112basic_stringIcSt11char_traitsIcESaIcEEESaIS5_EE19_M_get_Tp_allocatorEv,"axG",@progbits,_ZNKSt12_Vector_baseINSt7__cxx1112basic_stringIcSt11char_traitsIcESaIcEEESaIS5_EE19_M_get_Tp_allocatorEv,comdat
	.weak	_ZNKSt12_Vector_baseINSt7__cxx1112basic_stringIcSt11char_traitsIcESaIcEEESaIS5_EE19_M_get_Tp_allocatorEv # -- Begin function _ZNKSt12_Vector_baseINSt7__cxx1112basic_stringIcSt11char_traitsIcESaIcEEESaIS5_EE19_M_get_Tp_allocatorEv
	.p2align	4, 0x90
	.type	_ZNKSt12_Vector_baseINSt7__cxx1112basic_stringIcSt11char_traitsIcESaIcEEESaIS5_EE19_M_get_Tp_allocatorEv,@function
_ZNKSt12_Vector_baseINSt7__cxx1112basic_stringIcSt11char_traitsIcESaIcEEESaIS5_EE19_M_get_Tp_allocatorEv: # @_ZNKSt12_Vector_baseINSt7__cxx1112basic_stringIcSt11char_traitsIcESaIcEEESaIS5_EE19_M_get_Tp_allocatorEv
	.cfi_startproc
# %bb.0:
	pushq	%rbp
	.cfi_def_cfa_offset 16
	.cfi_offset %rbp, -16
	movq	%rsp, %rbp
	.cfi_def_cfa_register %rbp
	movq	%rdi, -8(%rbp)
	movq	-8(%rbp), %rax
	popq	%rbp
	.cfi_def_cfa %rsp, 8
	retq
.Lfunc_end66:
	.size	_ZNKSt12_Vector_baseINSt7__cxx1112basic_stringIcSt11char_traitsIcESaIcEEESaIS5_EE19_M_get_Tp_allocatorEv, .Lfunc_end66-_ZNKSt12_Vector_baseINSt7__cxx1112basic_stringIcSt11char_traitsIcESaIcEEESaIS5_EE19_M_get_Tp_allocatorEv
	.cfi_endproc
                                        # -- End function
	.section	.text._ZNSt16allocator_traitsISaINSt7__cxx1112basic_stringIcSt11char_traitsIcESaIcEEEEE8max_sizeERKS6_,"axG",@progbits,_ZNSt16allocator_traitsISaINSt7__cxx1112basic_stringIcSt11char_traitsIcESaIcEEEEE8max_sizeERKS6_,comdat
	.weak	_ZNSt16allocator_traitsISaINSt7__cxx1112basic_stringIcSt11char_traitsIcESaIcEEEEE8max_sizeERKS6_ # -- Begin function _ZNSt16allocator_traitsISaINSt7__cxx1112basic_stringIcSt11char_traitsIcESaIcEEEEE8max_sizeERKS6_
	.p2align	4, 0x90
	.type	_ZNSt16allocator_traitsISaINSt7__cxx1112basic_stringIcSt11char_traitsIcESaIcEEEEE8max_sizeERKS6_,@function
_ZNSt16allocator_traitsISaINSt7__cxx1112basic_stringIcSt11char_traitsIcESaIcEEEEE8max_sizeERKS6_: # @_ZNSt16allocator_traitsISaINSt7__cxx1112basic_stringIcSt11char_traitsIcESaIcEEEEE8max_sizeERKS6_
	.cfi_startproc
# %bb.0:
	pushq	%rbp
	.cfi_def_cfa_offset 16
	.cfi_offset %rbp, -16
	movq	%rsp, %rbp
	.cfi_def_cfa_register %rbp
	subq	$16, %rsp
	movq	%rdi, -8(%rbp)
	movq	-8(%rbp), %rax
	movq	%rax, %rdi
	callq	_ZNK9__gnu_cxx13new_allocatorINSt7__cxx1112basic_stringIcSt11char_traitsIcESaIcEEEE8max_sizeEv
	addq	$16, %rsp
	popq	%rbp
	.cfi_def_cfa %rsp, 8
	retq
.Lfunc_end67:
	.size	_ZNSt16allocator_traitsISaINSt7__cxx1112basic_stringIcSt11char_traitsIcESaIcEEEEE8max_sizeERKS6_, .Lfunc_end67-_ZNSt16allocator_traitsISaINSt7__cxx1112basic_stringIcSt11char_traitsIcESaIcEEEEE8max_sizeERKS6_
	.cfi_endproc
                                        # -- End function
	.section	.text._ZSt3minImERKT_S2_S2_,"axG",@progbits,_ZSt3minImERKT_S2_S2_,comdat
	.weak	_ZSt3minImERKT_S2_S2_           # -- Begin function _ZSt3minImERKT_S2_S2_
	.p2align	4, 0x90
	.type	_ZSt3minImERKT_S2_S2_,@function
_ZSt3minImERKT_S2_S2_:                  # @_ZSt3minImERKT_S2_S2_
	.cfi_startproc
# %bb.0:
	pushq	%rbp
	.cfi_def_cfa_offset 16
	.cfi_offset %rbp, -16
	movq	%rsp, %rbp
	.cfi_def_cfa_register %rbp
	movq	%rdi, -16(%rbp)
	movq	%rsi, -24(%rbp)
	movq	-24(%rbp), %rax
	movq	(%rax), %rax
	movq	-16(%rbp), %rcx
	cmpq	(%rcx), %rax
	jae	.LBB68_2
# %bb.1:
	movq	-24(%rbp), %rax
	movq	%rax, -8(%rbp)
	jmp	.LBB68_3
.LBB68_2:
	movq	-16(%rbp), %rax
	movq	%rax, -8(%rbp)
.LBB68_3:
	movq	-8(%rbp), %rax
	popq	%rbp
	.cfi_def_cfa %rsp, 8
	retq
.Lfunc_end68:
	.size	_ZSt3minImERKT_S2_S2_, .Lfunc_end68-_ZSt3minImERKT_S2_S2_
	.cfi_endproc
                                        # -- End function
	.section	.text._ZNK9__gnu_cxx13new_allocatorINSt7__cxx1112basic_stringIcSt11char_traitsIcESaIcEEEE8max_sizeEv,"axG",@progbits,_ZNK9__gnu_cxx13new_allocatorINSt7__cxx1112basic_stringIcSt11char_traitsIcESaIcEEEE8max_sizeEv,comdat
	.weak	_ZNK9__gnu_cxx13new_allocatorINSt7__cxx1112basic_stringIcSt11char_traitsIcESaIcEEEE8max_sizeEv # -- Begin function _ZNK9__gnu_cxx13new_allocatorINSt7__cxx1112basic_stringIcSt11char_traitsIcESaIcEEEE8max_sizeEv
	.p2align	4, 0x90
	.type	_ZNK9__gnu_cxx13new_allocatorINSt7__cxx1112basic_stringIcSt11char_traitsIcESaIcEEEE8max_sizeEv,@function
_ZNK9__gnu_cxx13new_allocatorINSt7__cxx1112basic_stringIcSt11char_traitsIcESaIcEEEE8max_sizeEv: # @_ZNK9__gnu_cxx13new_allocatorINSt7__cxx1112basic_stringIcSt11char_traitsIcESaIcEEEE8max_sizeEv
	.cfi_startproc
# %bb.0:
	pushq	%rbp
	.cfi_def_cfa_offset 16
	.cfi_offset %rbp, -16
	movq	%rsp, %rbp
	.cfi_def_cfa_register %rbp
	subq	$16, %rsp
	movq	%rdi, -8(%rbp)
	movq	-8(%rbp), %rdi
	callq	_ZNK9__gnu_cxx13new_allocatorINSt7__cxx1112basic_stringIcSt11char_traitsIcESaIcEEEE11_M_max_sizeEv
	addq	$16, %rsp
	popq	%rbp
	.cfi_def_cfa %rsp, 8
	retq
.Lfunc_end69:
	.size	_ZNK9__gnu_cxx13new_allocatorINSt7__cxx1112basic_stringIcSt11char_traitsIcESaIcEEEE8max_sizeEv, .Lfunc_end69-_ZNK9__gnu_cxx13new_allocatorINSt7__cxx1112basic_stringIcSt11char_traitsIcESaIcEEEE8max_sizeEv
	.cfi_endproc
                                        # -- End function
	.section	.text._ZNK9__gnu_cxx13new_allocatorINSt7__cxx1112basic_stringIcSt11char_traitsIcESaIcEEEE11_M_max_sizeEv,"axG",@progbits,_ZNK9__gnu_cxx13new_allocatorINSt7__cxx1112basic_stringIcSt11char_traitsIcESaIcEEEE11_M_max_sizeEv,comdat
	.weak	_ZNK9__gnu_cxx13new_allocatorINSt7__cxx1112basic_stringIcSt11char_traitsIcESaIcEEEE11_M_max_sizeEv # -- Begin function _ZNK9__gnu_cxx13new_allocatorINSt7__cxx1112basic_stringIcSt11char_traitsIcESaIcEEEE11_M_max_sizeEv
	.p2align	4, 0x90
	.type	_ZNK9__gnu_cxx13new_allocatorINSt7__cxx1112basic_stringIcSt11char_traitsIcESaIcEEEE11_M_max_sizeEv,@function
_ZNK9__gnu_cxx13new_allocatorINSt7__cxx1112basic_stringIcSt11char_traitsIcESaIcEEEE11_M_max_sizeEv: # @_ZNK9__gnu_cxx13new_allocatorINSt7__cxx1112basic_stringIcSt11char_traitsIcESaIcEEEE11_M_max_sizeEv
	.cfi_startproc
# %bb.0:
	pushq	%rbp
	.cfi_def_cfa_offset 16
	.cfi_offset %rbp, -16
	movq	%rsp, %rbp
	.cfi_def_cfa_register %rbp
	movq	%rdi, -8(%rbp)
	movabsq	$288230376151711743, %rax       # imm = 0x3FFFFFFFFFFFFFF
	popq	%rbp
	.cfi_def_cfa %rsp, 8
	retq
.Lfunc_end70:
	.size	_ZNK9__gnu_cxx13new_allocatorINSt7__cxx1112basic_stringIcSt11char_traitsIcESaIcEEEE11_M_max_sizeEv, .Lfunc_end70-_ZNK9__gnu_cxx13new_allocatorINSt7__cxx1112basic_stringIcSt11char_traitsIcESaIcEEEE11_M_max_sizeEv
	.cfi_endproc
                                        # -- End function
	.section	.text._ZN9__gnu_cxx17__normal_iteratorIPNSt7__cxx1112basic_stringIcSt11char_traitsIcESaIcEEESt6vectorIS6_SaIS6_EEEC2ERKS7_,"axG",@progbits,_ZN9__gnu_cxx17__normal_iteratorIPNSt7__cxx1112basic_stringIcSt11char_traitsIcESaIcEEESt6vectorIS6_SaIS6_EEEC2ERKS7_,comdat
	.weak	_ZN9__gnu_cxx17__normal_iteratorIPNSt7__cxx1112basic_stringIcSt11char_traitsIcESaIcEEESt6vectorIS6_SaIS6_EEEC2ERKS7_ # -- Begin function _ZN9__gnu_cxx17__normal_iteratorIPNSt7__cxx1112basic_stringIcSt11char_traitsIcESaIcEEESt6vectorIS6_SaIS6_EEEC2ERKS7_
	.p2align	4, 0x90
	.type	_ZN9__gnu_cxx17__normal_iteratorIPNSt7__cxx1112basic_stringIcSt11char_traitsIcESaIcEEESt6vectorIS6_SaIS6_EEEC2ERKS7_,@function
_ZN9__gnu_cxx17__normal_iteratorIPNSt7__cxx1112basic_stringIcSt11char_traitsIcESaIcEEESt6vectorIS6_SaIS6_EEEC2ERKS7_: # @_ZN9__gnu_cxx17__normal_iteratorIPNSt7__cxx1112basic_stringIcSt11char_traitsIcESaIcEEESt6vectorIS6_SaIS6_EEEC2ERKS7_
	.cfi_startproc
# %bb.0:
	pushq	%rbp
	.cfi_def_cfa_offset 16
	.cfi_offset %rbp, -16
	movq	%rsp, %rbp
	.cfi_def_cfa_register %rbp
	movq	%rdi, -8(%rbp)
	movq	%rsi, -16(%rbp)
	movq	-8(%rbp), %rax
	movq	-16(%rbp), %rcx
	movq	(%rcx), %rcx
	movq	%rcx, (%rax)
	popq	%rbp
	.cfi_def_cfa %rsp, 8
	retq
.Lfunc_end71:
	.size	_ZN9__gnu_cxx17__normal_iteratorIPNSt7__cxx1112basic_stringIcSt11char_traitsIcESaIcEEESt6vectorIS6_SaIS6_EEEC2ERKS7_, .Lfunc_end71-_ZN9__gnu_cxx17__normal_iteratorIPNSt7__cxx1112basic_stringIcSt11char_traitsIcESaIcEEESt6vectorIS6_SaIS6_EEEC2ERKS7_
	.cfi_endproc
                                        # -- End function
	.section	.text._ZNSt16allocator_traitsISaINSt7__cxx1112basic_stringIcSt11char_traitsIcESaIcEEEEE8allocateERS6_m,"axG",@progbits,_ZNSt16allocator_traitsISaINSt7__cxx1112basic_stringIcSt11char_traitsIcESaIcEEEEE8allocateERS6_m,comdat
	.weak	_ZNSt16allocator_traitsISaINSt7__cxx1112basic_stringIcSt11char_traitsIcESaIcEEEEE8allocateERS6_m # -- Begin function _ZNSt16allocator_traitsISaINSt7__cxx1112basic_stringIcSt11char_traitsIcESaIcEEEEE8allocateERS6_m
	.p2align	4, 0x90
	.type	_ZNSt16allocator_traitsISaINSt7__cxx1112basic_stringIcSt11char_traitsIcESaIcEEEEE8allocateERS6_m,@function
_ZNSt16allocator_traitsISaINSt7__cxx1112basic_stringIcSt11char_traitsIcESaIcEEEEE8allocateERS6_m: # @_ZNSt16allocator_traitsISaINSt7__cxx1112basic_stringIcSt11char_traitsIcESaIcEEEEE8allocateERS6_m
	.cfi_startproc
# %bb.0:
	pushq	%rbp
	.cfi_def_cfa_offset 16
	.cfi_offset %rbp, -16
	movq	%rsp, %rbp
	.cfi_def_cfa_register %rbp
	subq	$16, %rsp
	xorl	%eax, %eax
	movl	%eax, %edx
	movq	%rdi, -8(%rbp)
	movq	%rsi, -16(%rbp)
	movq	-8(%rbp), %rcx
	movq	-16(%rbp), %rsi
	movq	%rcx, %rdi
	callq	_ZN9__gnu_cxx13new_allocatorINSt7__cxx1112basic_stringIcSt11char_traitsIcESaIcEEEE8allocateEmPKv
	addq	$16, %rsp
	popq	%rbp
	.cfi_def_cfa %rsp, 8
	retq
.Lfunc_end72:
	.size	_ZNSt16allocator_traitsISaINSt7__cxx1112basic_stringIcSt11char_traitsIcESaIcEEEEE8allocateERS6_m, .Lfunc_end72-_ZNSt16allocator_traitsISaINSt7__cxx1112basic_stringIcSt11char_traitsIcESaIcEEEEE8allocateERS6_m
	.cfi_endproc
                                        # -- End function
	.section	.text._ZN9__gnu_cxx13new_allocatorINSt7__cxx1112basic_stringIcSt11char_traitsIcESaIcEEEE8allocateEmPKv,"axG",@progbits,_ZN9__gnu_cxx13new_allocatorINSt7__cxx1112basic_stringIcSt11char_traitsIcESaIcEEEE8allocateEmPKv,comdat
	.weak	_ZN9__gnu_cxx13new_allocatorINSt7__cxx1112basic_stringIcSt11char_traitsIcESaIcEEEE8allocateEmPKv # -- Begin function _ZN9__gnu_cxx13new_allocatorINSt7__cxx1112basic_stringIcSt11char_traitsIcESaIcEEEE8allocateEmPKv
	.p2align	4, 0x90
	.type	_ZN9__gnu_cxx13new_allocatorINSt7__cxx1112basic_stringIcSt11char_traitsIcESaIcEEEE8allocateEmPKv,@function
_ZN9__gnu_cxx13new_allocatorINSt7__cxx1112basic_stringIcSt11char_traitsIcESaIcEEEE8allocateEmPKv: # @_ZN9__gnu_cxx13new_allocatorINSt7__cxx1112basic_stringIcSt11char_traitsIcESaIcEEEE8allocateEmPKv
	.cfi_startproc
# %bb.0:
	pushq	%rbp
	.cfi_def_cfa_offset 16
	.cfi_offset %rbp, -16
	movq	%rsp, %rbp
	.cfi_def_cfa_register %rbp
	subq	$32, %rsp
	movq	%rdi, -8(%rbp)
	movq	%rsi, -16(%rbp)
	movq	%rdx, -24(%rbp)
	movq	-8(%rbp), %rdi
	movq	-16(%rbp), %rax
	movq	%rax, -32(%rbp)                 # 8-byte Spill
	callq	_ZNK9__gnu_cxx13new_allocatorINSt7__cxx1112basic_stringIcSt11char_traitsIcESaIcEEEE11_M_max_sizeEv
	movq	-32(%rbp), %rcx                 # 8-byte Reload
	cmpq	%rax, %rcx
	jbe	.LBB73_2
# %bb.1:
	callq	_ZSt17__throw_bad_allocv@PLT
.LBB73_2:
	movq	-16(%rbp), %rax
	shlq	$5, %rax
	movq	%rax, %rdi
	callq	_Znwm@PLT
	addq	$32, %rsp
	popq	%rbp
	.cfi_def_cfa %rsp, 8
	retq
.Lfunc_end73:
	.size	_ZN9__gnu_cxx13new_allocatorINSt7__cxx1112basic_stringIcSt11char_traitsIcESaIcEEEE8allocateEmPKv, .Lfunc_end73-_ZN9__gnu_cxx13new_allocatorINSt7__cxx1112basic_stringIcSt11char_traitsIcESaIcEEEE8allocateEmPKv
	.cfi_endproc
                                        # -- End function
	.section	.text._ZNSt6vectorINSt7__cxx1112basic_stringIcSt11char_traitsIcESaIcEEESaIS5_EE14_S_do_relocateEPS5_S8_S8_RS6_St17integral_constantIbLb1EE,"axG",@progbits,_ZNSt6vectorINSt7__cxx1112basic_stringIcSt11char_traitsIcESaIcEEESaIS5_EE14_S_do_relocateEPS5_S8_S8_RS6_St17integral_constantIbLb1EE,comdat
	.weak	_ZNSt6vectorINSt7__cxx1112basic_stringIcSt11char_traitsIcESaIcEEESaIS5_EE14_S_do_relocateEPS5_S8_S8_RS6_St17integral_constantIbLb1EE # -- Begin function _ZNSt6vectorINSt7__cxx1112basic_stringIcSt11char_traitsIcESaIcEEESaIS5_EE14_S_do_relocateEPS5_S8_S8_RS6_St17integral_constantIbLb1EE
	.p2align	4, 0x90
	.type	_ZNSt6vectorINSt7__cxx1112basic_stringIcSt11char_traitsIcESaIcEEESaIS5_EE14_S_do_relocateEPS5_S8_S8_RS6_St17integral_constantIbLb1EE,@function
_ZNSt6vectorINSt7__cxx1112basic_stringIcSt11char_traitsIcESaIcEEESaIS5_EE14_S_do_relocateEPS5_S8_S8_RS6_St17integral_constantIbLb1EE: # @_ZNSt6vectorINSt7__cxx1112basic_stringIcSt11char_traitsIcESaIcEEESaIS5_EE14_S_do_relocateEPS5_S8_S8_RS6_St17integral_constantIbLb1EE
	.cfi_startproc
# %bb.0:
	pushq	%rbp
	.cfi_def_cfa_offset 16
	.cfi_offset %rbp, -16
	movq	%rsp, %rbp
	.cfi_def_cfa_register %rbp
	subq	$48, %rsp
	movq	%rdi, -16(%rbp)
	movq	%rsi, -24(%rbp)
	movq	%rdx, -32(%rbp)
	movq	%rcx, -40(%rbp)
	movq	-16(%rbp), %rdi
	movq	-24(%rbp), %rsi
	movq	-32(%rbp), %rdx
	movq	-40(%rbp), %rcx
	callq	_ZSt12__relocate_aIPNSt7__cxx1112basic_stringIcSt11char_traitsIcESaIcEEES6_SaIS5_EET0_T_S9_S8_RT1_
	addq	$48, %rsp
	popq	%rbp
	.cfi_def_cfa %rsp, 8
	retq
.Lfunc_end74:
	.size	_ZNSt6vectorINSt7__cxx1112basic_stringIcSt11char_traitsIcESaIcEEESaIS5_EE14_S_do_relocateEPS5_S8_S8_RS6_St17integral_constantIbLb1EE, .Lfunc_end74-_ZNSt6vectorINSt7__cxx1112basic_stringIcSt11char_traitsIcESaIcEEESaIS5_EE14_S_do_relocateEPS5_S8_S8_RS6_St17integral_constantIbLb1EE
	.cfi_endproc
                                        # -- End function
	.section	.text._ZSt12__relocate_aIPNSt7__cxx1112basic_stringIcSt11char_traitsIcESaIcEEES6_SaIS5_EET0_T_S9_S8_RT1_,"axG",@progbits,_ZSt12__relocate_aIPNSt7__cxx1112basic_stringIcSt11char_traitsIcESaIcEEES6_SaIS5_EET0_T_S9_S8_RT1_,comdat
	.weak	_ZSt12__relocate_aIPNSt7__cxx1112basic_stringIcSt11char_traitsIcESaIcEEES6_SaIS5_EET0_T_S9_S8_RT1_ # -- Begin function _ZSt12__relocate_aIPNSt7__cxx1112basic_stringIcSt11char_traitsIcESaIcEEES6_SaIS5_EET0_T_S9_S8_RT1_
	.p2align	4, 0x90
	.type	_ZSt12__relocate_aIPNSt7__cxx1112basic_stringIcSt11char_traitsIcESaIcEEES6_SaIS5_EET0_T_S9_S8_RT1_,@function
_ZSt12__relocate_aIPNSt7__cxx1112basic_stringIcSt11char_traitsIcESaIcEEES6_SaIS5_EET0_T_S9_S8_RT1_: # @_ZSt12__relocate_aIPNSt7__cxx1112basic_stringIcSt11char_traitsIcESaIcEEES6_SaIS5_EET0_T_S9_S8_RT1_
	.cfi_startproc
# %bb.0:
	pushq	%rbp
	.cfi_def_cfa_offset 16
	.cfi_offset %rbp, -16
	movq	%rsp, %rbp
	.cfi_def_cfa_register %rbp
	subq	$48, %rsp
	movq	%rdi, -8(%rbp)
	movq	%rsi, -16(%rbp)
	movq	%rdx, -24(%rbp)
	movq	%rcx, -32(%rbp)
	movq	-8(%rbp), %rdi
	callq	_ZSt12__niter_baseIPNSt7__cxx1112basic_stringIcSt11char_traitsIcESaIcEEEET_S7_
	movq	-16(%rbp), %rdi
	movq	%rax, -40(%rbp)                 # 8-byte Spill
	callq	_ZSt12__niter_baseIPNSt7__cxx1112basic_stringIcSt11char_traitsIcESaIcEEEET_S7_
	movq	-24(%rbp), %rdi
	movq	%rax, -48(%rbp)                 # 8-byte Spill
	callq	_ZSt12__niter_baseIPNSt7__cxx1112basic_stringIcSt11char_traitsIcESaIcEEEET_S7_
	movq	-32(%rbp), %rcx
	movq	-40(%rbp), %rdi                 # 8-byte Reload
	movq	-48(%rbp), %rsi                 # 8-byte Reload
	movq	%rax, %rdx
	callq	_ZSt14__relocate_a_1IPNSt7__cxx1112basic_stringIcSt11char_traitsIcESaIcEEES6_SaIS5_EET0_T_S9_S8_RT1_
	addq	$48, %rsp
	popq	%rbp
	.cfi_def_cfa %rsp, 8
	retq
.Lfunc_end75:
	.size	_ZSt12__relocate_aIPNSt7__cxx1112basic_stringIcSt11char_traitsIcESaIcEEES6_SaIS5_EET0_T_S9_S8_RT1_, .Lfunc_end75-_ZSt12__relocate_aIPNSt7__cxx1112basic_stringIcSt11char_traitsIcESaIcEEES6_SaIS5_EET0_T_S9_S8_RT1_
	.cfi_endproc
                                        # -- End function
	.section	.text._ZSt14__relocate_a_1IPNSt7__cxx1112basic_stringIcSt11char_traitsIcESaIcEEES6_SaIS5_EET0_T_S9_S8_RT1_,"axG",@progbits,_ZSt14__relocate_a_1IPNSt7__cxx1112basic_stringIcSt11char_traitsIcESaIcEEES6_SaIS5_EET0_T_S9_S8_RT1_,comdat
	.weak	_ZSt14__relocate_a_1IPNSt7__cxx1112basic_stringIcSt11char_traitsIcESaIcEEES6_SaIS5_EET0_T_S9_S8_RT1_ # -- Begin function _ZSt14__relocate_a_1IPNSt7__cxx1112basic_stringIcSt11char_traitsIcESaIcEEES6_SaIS5_EET0_T_S9_S8_RT1_
	.p2align	4, 0x90
	.type	_ZSt14__relocate_a_1IPNSt7__cxx1112basic_stringIcSt11char_traitsIcESaIcEEES6_SaIS5_EET0_T_S9_S8_RT1_,@function
_ZSt14__relocate_a_1IPNSt7__cxx1112basic_stringIcSt11char_traitsIcESaIcEEES6_SaIS5_EET0_T_S9_S8_RT1_: # @_ZSt14__relocate_a_1IPNSt7__cxx1112basic_stringIcSt11char_traitsIcESaIcEEES6_SaIS5_EET0_T_S9_S8_RT1_
	.cfi_startproc
# %bb.0:
	pushq	%rbp
	.cfi_def_cfa_offset 16
	.cfi_offset %rbp, -16
	movq	%rsp, %rbp
	.cfi_def_cfa_register %rbp
	subq	$48, %rsp
	movq	%rdi, -8(%rbp)
	movq	%rsi, -16(%rbp)
	movq	%rdx, -24(%rbp)
	movq	%rcx, -32(%rbp)
	movq	-24(%rbp), %rax
	movq	%rax, -40(%rbp)
.LBB76_1:                               # =>This Inner Loop Header: Depth=1
	movq	-8(%rbp), %rax
	cmpq	-16(%rbp), %rax
	je	.LBB76_4
# %bb.2:                                #   in Loop: Header=BB76_1 Depth=1
	movq	-40(%rbp), %rdi
	callq	_ZSt11__addressofINSt7__cxx1112basic_stringIcSt11char_traitsIcESaIcEEEEPT_RS6_
	movq	-8(%rbp), %rdi
	movq	%rax, -48(%rbp)                 # 8-byte Spill
	callq	_ZSt11__addressofINSt7__cxx1112basic_stringIcSt11char_traitsIcESaIcEEEEPT_RS6_
	movq	-32(%rbp), %rdx
	movq	-48(%rbp), %rdi                 # 8-byte Reload
	movq	%rax, %rsi
	callq	_ZSt19__relocate_object_aINSt7__cxx1112basic_stringIcSt11char_traitsIcESaIcEEES5_SaIS5_EEvPT_PT0_RT1_
# %bb.3:                                #   in Loop: Header=BB76_1 Depth=1
	movq	-8(%rbp), %rax
	addq	$32, %rax
	movq	%rax, -8(%rbp)
	movq	-40(%rbp), %rax
	addq	$32, %rax
	movq	%rax, -40(%rbp)
	jmp	.LBB76_1
.LBB76_4:
	movq	-40(%rbp), %rax
	addq	$48, %rsp
	popq	%rbp
	.cfi_def_cfa %rsp, 8
	retq
.Lfunc_end76:
	.size	_ZSt14__relocate_a_1IPNSt7__cxx1112basic_stringIcSt11char_traitsIcESaIcEEES6_SaIS5_EET0_T_S9_S8_RT1_, .Lfunc_end76-_ZSt14__relocate_a_1IPNSt7__cxx1112basic_stringIcSt11char_traitsIcESaIcEEES6_SaIS5_EET0_T_S9_S8_RT1_
	.cfi_endproc
                                        # -- End function
	.section	.text._ZSt12__niter_baseIPNSt7__cxx1112basic_stringIcSt11char_traitsIcESaIcEEEET_S7_,"axG",@progbits,_ZSt12__niter_baseIPNSt7__cxx1112basic_stringIcSt11char_traitsIcESaIcEEEET_S7_,comdat
	.weak	_ZSt12__niter_baseIPNSt7__cxx1112basic_stringIcSt11char_traitsIcESaIcEEEET_S7_ # -- Begin function _ZSt12__niter_baseIPNSt7__cxx1112basic_stringIcSt11char_traitsIcESaIcEEEET_S7_
	.p2align	4, 0x90
	.type	_ZSt12__niter_baseIPNSt7__cxx1112basic_stringIcSt11char_traitsIcESaIcEEEET_S7_,@function
_ZSt12__niter_baseIPNSt7__cxx1112basic_stringIcSt11char_traitsIcESaIcEEEET_S7_: # @_ZSt12__niter_baseIPNSt7__cxx1112basic_stringIcSt11char_traitsIcESaIcEEEET_S7_
	.cfi_startproc
# %bb.0:
	pushq	%rbp
	.cfi_def_cfa_offset 16
	.cfi_offset %rbp, -16
	movq	%rsp, %rbp
	.cfi_def_cfa_register %rbp
	movq	%rdi, -8(%rbp)
	movq	-8(%rbp), %rax
	popq	%rbp
	.cfi_def_cfa %rsp, 8
	retq
.Lfunc_end77:
	.size	_ZSt12__niter_baseIPNSt7__cxx1112basic_stringIcSt11char_traitsIcESaIcEEEET_S7_, .Lfunc_end77-_ZSt12__niter_baseIPNSt7__cxx1112basic_stringIcSt11char_traitsIcESaIcEEEET_S7_
	.cfi_endproc
                                        # -- End function
	.section	.text._ZSt19__relocate_object_aINSt7__cxx1112basic_stringIcSt11char_traitsIcESaIcEEES5_SaIS5_EEvPT_PT0_RT1_,"axG",@progbits,_ZSt19__relocate_object_aINSt7__cxx1112basic_stringIcSt11char_traitsIcESaIcEEES5_SaIS5_EEvPT_PT0_RT1_,comdat
	.weak	_ZSt19__relocate_object_aINSt7__cxx1112basic_stringIcSt11char_traitsIcESaIcEEES5_SaIS5_EEvPT_PT0_RT1_ # -- Begin function _ZSt19__relocate_object_aINSt7__cxx1112basic_stringIcSt11char_traitsIcESaIcEEES5_SaIS5_EEvPT_PT0_RT1_
	.p2align	4, 0x90
	.type	_ZSt19__relocate_object_aINSt7__cxx1112basic_stringIcSt11char_traitsIcESaIcEEES5_SaIS5_EEvPT_PT0_RT1_,@function
_ZSt19__relocate_object_aINSt7__cxx1112basic_stringIcSt11char_traitsIcESaIcEEES5_SaIS5_EEvPT_PT0_RT1_: # @_ZSt19__relocate_object_aINSt7__cxx1112basic_stringIcSt11char_traitsIcESaIcEEES5_SaIS5_EEvPT_PT0_RT1_
	.cfi_startproc
# %bb.0:
	pushq	%rbp
	.cfi_def_cfa_offset 16
	.cfi_offset %rbp, -16
	movq	%rsp, %rbp
	.cfi_def_cfa_register %rbp
	subq	$48, %rsp
	movq	%rdi, -8(%rbp)
	movq	%rsi, -16(%rbp)
	movq	%rdx, -24(%rbp)
	movq	-24(%rbp), %rdi
	movq	-8(%rbp), %rsi
	movq	-16(%rbp), %rax
	movq	%rdi, -32(%rbp)                 # 8-byte Spill
	movq	%rax, %rdi
	movq	%rsi, -40(%rbp)                 # 8-byte Spill
	callq	_ZSt4moveIRNSt7__cxx1112basic_stringIcSt11char_traitsIcESaIcEEEEONSt16remove_referenceIT_E4typeEOS8_
	movq	-32(%rbp), %rdi                 # 8-byte Reload
	movq	-40(%rbp), %rsi                 # 8-byte Reload
	movq	%rax, %rdx
	callq	_ZNSt16allocator_traitsISaINSt7__cxx1112basic_stringIcSt11char_traitsIcESaIcEEEEE9constructIS5_JS5_EEEvRS6_PT_DpOT0_
	movq	-24(%rbp), %rdi
	movq	-16(%rbp), %rax
	movq	%rdi, -48(%rbp)                 # 8-byte Spill
	movq	%rax, %rdi
	callq	_ZSt11__addressofINSt7__cxx1112basic_stringIcSt11char_traitsIcESaIcEEEEPT_RS6_
	movq	-48(%rbp), %rdi                 # 8-byte Reload
	movq	%rax, %rsi
	callq	_ZNSt16allocator_traitsISaINSt7__cxx1112basic_stringIcSt11char_traitsIcESaIcEEEEE7destroyIS5_EEvRS6_PT_
	addq	$48, %rsp
	popq	%rbp
	.cfi_def_cfa %rsp, 8
	retq
.Lfunc_end78:
	.size	_ZSt19__relocate_object_aINSt7__cxx1112basic_stringIcSt11char_traitsIcESaIcEEES5_SaIS5_EEvPT_PT0_RT1_, .Lfunc_end78-_ZSt19__relocate_object_aINSt7__cxx1112basic_stringIcSt11char_traitsIcESaIcEEES5_SaIS5_EEvPT_PT0_RT1_
	.cfi_endproc
                                        # -- End function
	.section	.text._ZNSt16allocator_traitsISaINSt7__cxx1112basic_stringIcSt11char_traitsIcESaIcEEEEE9constructIS5_JS5_EEEvRS6_PT_DpOT0_,"axG",@progbits,_ZNSt16allocator_traitsISaINSt7__cxx1112basic_stringIcSt11char_traitsIcESaIcEEEEE9constructIS5_JS5_EEEvRS6_PT_DpOT0_,comdat
	.weak	_ZNSt16allocator_traitsISaINSt7__cxx1112basic_stringIcSt11char_traitsIcESaIcEEEEE9constructIS5_JS5_EEEvRS6_PT_DpOT0_ # -- Begin function _ZNSt16allocator_traitsISaINSt7__cxx1112basic_stringIcSt11char_traitsIcESaIcEEEEE9constructIS5_JS5_EEEvRS6_PT_DpOT0_
	.p2align	4, 0x90
	.type	_ZNSt16allocator_traitsISaINSt7__cxx1112basic_stringIcSt11char_traitsIcESaIcEEEEE9constructIS5_JS5_EEEvRS6_PT_DpOT0_,@function
_ZNSt16allocator_traitsISaINSt7__cxx1112basic_stringIcSt11char_traitsIcESaIcEEEEE9constructIS5_JS5_EEEvRS6_PT_DpOT0_: # @_ZNSt16allocator_traitsISaINSt7__cxx1112basic_stringIcSt11char_traitsIcESaIcEEEEE9constructIS5_JS5_EEEvRS6_PT_DpOT0_
	.cfi_startproc
# %bb.0:
	pushq	%rbp
	.cfi_def_cfa_offset 16
	.cfi_offset %rbp, -16
	movq	%rsp, %rbp
	.cfi_def_cfa_register %rbp
	subq	$48, %rsp
	movq	%rdi, -8(%rbp)
	movq	%rsi, -16(%rbp)
	movq	%rdx, -24(%rbp)
	movq	-8(%rbp), %rax
	movq	-16(%rbp), %rsi
	movq	-24(%rbp), %rdi
	movq	%rax, -32(%rbp)                 # 8-byte Spill
	movq	%rsi, -40(%rbp)                 # 8-byte Spill
	callq	_ZSt7forwardINSt7__cxx1112basic_stringIcSt11char_traitsIcESaIcEEEEOT_RNSt16remove_referenceIS6_E4typeE
	movq	-32(%rbp), %rdi                 # 8-byte Reload
	movq	-40(%rbp), %rsi                 # 8-byte Reload
	movq	%rax, %rdx
	callq	_ZN9__gnu_cxx13new_allocatorINSt7__cxx1112basic_stringIcSt11char_traitsIcESaIcEEEE9constructIS6_JS6_EEEvPT_DpOT0_
	addq	$48, %rsp
	popq	%rbp
	.cfi_def_cfa %rsp, 8
	retq
.Lfunc_end79:
	.size	_ZNSt16allocator_traitsISaINSt7__cxx1112basic_stringIcSt11char_traitsIcESaIcEEEEE9constructIS5_JS5_EEEvRS6_PT_DpOT0_, .Lfunc_end79-_ZNSt16allocator_traitsISaINSt7__cxx1112basic_stringIcSt11char_traitsIcESaIcEEEEE9constructIS5_JS5_EEEvRS6_PT_DpOT0_
	.cfi_endproc
                                        # -- End function
	.section	.text._ZSt4moveIRNSt7__cxx1112basic_stringIcSt11char_traitsIcESaIcEEEEONSt16remove_referenceIT_E4typeEOS8_,"axG",@progbits,_ZSt4moveIRNSt7__cxx1112basic_stringIcSt11char_traitsIcESaIcEEEEONSt16remove_referenceIT_E4typeEOS8_,comdat
	.weak	_ZSt4moveIRNSt7__cxx1112basic_stringIcSt11char_traitsIcESaIcEEEEONSt16remove_referenceIT_E4typeEOS8_ # -- Begin function _ZSt4moveIRNSt7__cxx1112basic_stringIcSt11char_traitsIcESaIcEEEEONSt16remove_referenceIT_E4typeEOS8_
	.p2align	4, 0x90
	.type	_ZSt4moveIRNSt7__cxx1112basic_stringIcSt11char_traitsIcESaIcEEEEONSt16remove_referenceIT_E4typeEOS8_,@function
_ZSt4moveIRNSt7__cxx1112basic_stringIcSt11char_traitsIcESaIcEEEEONSt16remove_referenceIT_E4typeEOS8_: # @_ZSt4moveIRNSt7__cxx1112basic_stringIcSt11char_traitsIcESaIcEEEEONSt16remove_referenceIT_E4typeEOS8_
	.cfi_startproc
# %bb.0:
	pushq	%rbp
	.cfi_def_cfa_offset 16
	.cfi_offset %rbp, -16
	movq	%rsp, %rbp
	.cfi_def_cfa_register %rbp
	movq	%rdi, -8(%rbp)
	movq	-8(%rbp), %rax
	popq	%rbp
	.cfi_def_cfa %rsp, 8
	retq
.Lfunc_end80:
	.size	_ZSt4moveIRNSt7__cxx1112basic_stringIcSt11char_traitsIcESaIcEEEEONSt16remove_referenceIT_E4typeEOS8_, .Lfunc_end80-_ZSt4moveIRNSt7__cxx1112basic_stringIcSt11char_traitsIcESaIcEEEEONSt16remove_referenceIT_E4typeEOS8_
	.cfi_endproc
                                        # -- End function
	.section	.text._ZN9__gnu_cxx13new_allocatorINSt7__cxx1112basic_stringIcSt11char_traitsIcESaIcEEEE9constructIS6_JS6_EEEvPT_DpOT0_,"axG",@progbits,_ZN9__gnu_cxx13new_allocatorINSt7__cxx1112basic_stringIcSt11char_traitsIcESaIcEEEE9constructIS6_JS6_EEEvPT_DpOT0_,comdat
	.weak	_ZN9__gnu_cxx13new_allocatorINSt7__cxx1112basic_stringIcSt11char_traitsIcESaIcEEEE9constructIS6_JS6_EEEvPT_DpOT0_ # -- Begin function _ZN9__gnu_cxx13new_allocatorINSt7__cxx1112basic_stringIcSt11char_traitsIcESaIcEEEE9constructIS6_JS6_EEEvPT_DpOT0_
	.p2align	4, 0x90
	.type	_ZN9__gnu_cxx13new_allocatorINSt7__cxx1112basic_stringIcSt11char_traitsIcESaIcEEEE9constructIS6_JS6_EEEvPT_DpOT0_,@function
_ZN9__gnu_cxx13new_allocatorINSt7__cxx1112basic_stringIcSt11char_traitsIcESaIcEEEE9constructIS6_JS6_EEEvPT_DpOT0_: # @_ZN9__gnu_cxx13new_allocatorINSt7__cxx1112basic_stringIcSt11char_traitsIcESaIcEEEE9constructIS6_JS6_EEEvPT_DpOT0_
	.cfi_startproc
# %bb.0:
	pushq	%rbp
	.cfi_def_cfa_offset 16
	.cfi_offset %rbp, -16
	movq	%rsp, %rbp
	.cfi_def_cfa_register %rbp
	subq	$32, %rsp
	movq	%rdi, -8(%rbp)
	movq	%rsi, -16(%rbp)
	movq	%rdx, -24(%rbp)
	movq	-16(%rbp), %rax
	movq	-24(%rbp), %rdi
	movq	%rax, -32(%rbp)                 # 8-byte Spill
	callq	_ZSt7forwardINSt7__cxx1112basic_stringIcSt11char_traitsIcESaIcEEEEOT_RNSt16remove_referenceIS6_E4typeE
	movq	-32(%rbp), %rdi                 # 8-byte Reload
	movq	%rax, %rsi
	callq	_ZNSt7__cxx1112basic_stringIcSt11char_traitsIcESaIcEEC1EOS4_@PLT
	addq	$32, %rsp
	popq	%rbp
	.cfi_def_cfa %rsp, 8
	retq
.Lfunc_end81:
	.size	_ZN9__gnu_cxx13new_allocatorINSt7__cxx1112basic_stringIcSt11char_traitsIcESaIcEEEE9constructIS6_JS6_EEEvPT_DpOT0_, .Lfunc_end81-_ZN9__gnu_cxx13new_allocatorINSt7__cxx1112basic_stringIcSt11char_traitsIcESaIcEEEE9constructIS6_JS6_EEEvPT_DpOT0_
	.cfi_endproc
                                        # -- End function
	.section	.text._ZSt7forwardINSt7__cxx1112basic_stringIcSt11char_traitsIcESaIcEEEEOT_RNSt16remove_referenceIS6_E4typeE,"axG",@progbits,_ZSt7forwardINSt7__cxx1112basic_stringIcSt11char_traitsIcESaIcEEEEOT_RNSt16remove_referenceIS6_E4typeE,comdat
	.weak	_ZSt7forwardINSt7__cxx1112basic_stringIcSt11char_traitsIcESaIcEEEEOT_RNSt16remove_referenceIS6_E4typeE # -- Begin function _ZSt7forwardINSt7__cxx1112basic_stringIcSt11char_traitsIcESaIcEEEEOT_RNSt16remove_referenceIS6_E4typeE
	.p2align	4, 0x90
	.type	_ZSt7forwardINSt7__cxx1112basic_stringIcSt11char_traitsIcESaIcEEEEOT_RNSt16remove_referenceIS6_E4typeE,@function
_ZSt7forwardINSt7__cxx1112basic_stringIcSt11char_traitsIcESaIcEEEEOT_RNSt16remove_referenceIS6_E4typeE: # @_ZSt7forwardINSt7__cxx1112basic_stringIcSt11char_traitsIcESaIcEEEEOT_RNSt16remove_referenceIS6_E4typeE
	.cfi_startproc
# %bb.0:
	pushq	%rbp
	.cfi_def_cfa_offset 16
	.cfi_offset %rbp, -16
	movq	%rsp, %rbp
	.cfi_def_cfa_register %rbp
	movq	%rdi, -8(%rbp)
	movq	-8(%rbp), %rax
	popq	%rbp
	.cfi_def_cfa %rsp, 8
	retq
.Lfunc_end82:
	.size	_ZSt7forwardINSt7__cxx1112basic_stringIcSt11char_traitsIcESaIcEEEEOT_RNSt16remove_referenceIS6_E4typeE, .Lfunc_end82-_ZSt7forwardINSt7__cxx1112basic_stringIcSt11char_traitsIcESaIcEEEEOT_RNSt16remove_referenceIS6_E4typeE
	.cfi_endproc
                                        # -- End function
	.section	.text._ZN9__gnu_cxx13new_allocatorINSt7__cxx1112basic_stringIcSt11char_traitsIcESaIcEEEE7destroyIS6_EEvPT_,"axG",@progbits,_ZN9__gnu_cxx13new_allocatorINSt7__cxx1112basic_stringIcSt11char_traitsIcESaIcEEEE7destroyIS6_EEvPT_,comdat
	.weak	_ZN9__gnu_cxx13new_allocatorINSt7__cxx1112basic_stringIcSt11char_traitsIcESaIcEEEE7destroyIS6_EEvPT_ # -- Begin function _ZN9__gnu_cxx13new_allocatorINSt7__cxx1112basic_stringIcSt11char_traitsIcESaIcEEEE7destroyIS6_EEvPT_
	.p2align	4, 0x90
	.type	_ZN9__gnu_cxx13new_allocatorINSt7__cxx1112basic_stringIcSt11char_traitsIcESaIcEEEE7destroyIS6_EEvPT_,@function
_ZN9__gnu_cxx13new_allocatorINSt7__cxx1112basic_stringIcSt11char_traitsIcESaIcEEEE7destroyIS6_EEvPT_: # @_ZN9__gnu_cxx13new_allocatorINSt7__cxx1112basic_stringIcSt11char_traitsIcESaIcEEEE7destroyIS6_EEvPT_
	.cfi_startproc
# %bb.0:
	pushq	%rbp
	.cfi_def_cfa_offset 16
	.cfi_offset %rbp, -16
	movq	%rsp, %rbp
	.cfi_def_cfa_register %rbp
	subq	$16, %rsp
	movq	%rdi, -8(%rbp)
	movq	%rsi, -16(%rbp)
	movq	-16(%rbp), %rdi
	callq	_ZNSt7__cxx1112basic_stringIcSt11char_traitsIcESaIcEED1Ev@PLT
	addq	$16, %rsp
	popq	%rbp
	.cfi_def_cfa %rsp, 8
	retq
.Lfunc_end83:
	.size	_ZN9__gnu_cxx13new_allocatorINSt7__cxx1112basic_stringIcSt11char_traitsIcESaIcEEEE7destroyIS6_EEvPT_, .Lfunc_end83-_ZN9__gnu_cxx13new_allocatorINSt7__cxx1112basic_stringIcSt11char_traitsIcESaIcEEEE7destroyIS6_EEvPT_
	.cfi_endproc
                                        # -- End function
	.section	.text.startup,"ax",@progbits
	.p2align	4, 0x90                         # -- Begin function _GLOBAL__sub_I_utils.cpp
	.type	_GLOBAL__sub_I_utils.cpp,@function
_GLOBAL__sub_I_utils.cpp:               # @_GLOBAL__sub_I_utils.cpp
	.cfi_startproc
# %bb.0:
	pushq	%rbp
	.cfi_def_cfa_offset 16
	.cfi_offset %rbp, -16
	movq	%rsp, %rbp
	.cfi_def_cfa_register %rbp
	callq	__cxx_global_var_init
	popq	%rbp
	.cfi_def_cfa %rsp, 8
	retq
.Lfunc_end84:
	.size	_GLOBAL__sub_I_utils.cpp, .Lfunc_end84-_GLOBAL__sub_I_utils.cpp
	.cfi_endproc
                                        # -- End function
	.type	_ZStL8__ioinit,@object          # @_ZStL8__ioinit
	.local	_ZStL8__ioinit
	.comm	_ZStL8__ioinit,1,1
	.hidden	__dso_handle
	.type	.L.str,@object                  # @.str
	.section	.rodata.str1.1,"aMS",@progbits,1
.L.str:
	.asciz	"vector::_M_realloc_insert"
	.size	.L.str, 26

	.section	.init_array,"aw",@init_array
	.p2align	3
	.quad	_GLOBAL__sub_I_utils.cpp
	.hidden	DW.ref.__gxx_personality_v0
	.weak	DW.ref.__gxx_personality_v0
	.section	.data.DW.ref.__gxx_personality_v0,"aGw",@progbits,DW.ref.__gxx_personality_v0,comdat
	.p2align	3
	.type	DW.ref.__gxx_personality_v0,@object
	.size	DW.ref.__gxx_personality_v0, 8
DW.ref.__gxx_personality_v0:
	.quad	__gxx_personality_v0
	.ident	"clang version 11.0.1"
	.section	".note.GNU-stack","",@progbits
	.addrsig
	.addrsig_sym __cxx_global_var_init
	.addrsig_sym __cxa_atexit
	.addrsig_sym _ZStlsIcSt11char_traitsIcESaIcEERSt13basic_ostreamIT_T0_ES7_RKNSt7__cxx1112basic_stringIS4_S5_T1_EE
	.addrsig_sym _ZNSolsEPFRSoS_E
	.addrsig_sym _ZSt4endlIcSt11char_traitsIcEERSt13basic_ostreamIT_T0_ES6_
	.addrsig_sym _ZSt4copyISt16istream_iteratorINSt7__cxx1112basic_stringIcSt11char_traitsIcESaIcEEEcS4_lESt20back_insert_iteratorISt6vectorIS6_SaIS6_EEEET0_T_SE_SD_
	.addrsig_sym __gxx_personality_v0
	.addrsig_sym _ZSt13back_inserterISt6vectorINSt7__cxx1112basic_stringIcSt11char_traitsIcESaIcEEESaIS6_EEESt20back_insert_iteratorIT_ERSA_
	.addrsig_sym _ZSt8_DestroyIPNSt7__cxx1112basic_stringIcSt11char_traitsIcESaIcEEES5_EvT_S7_RSaIT0_E
	.addrsig_sym _ZNSt12_Vector_baseINSt7__cxx1112basic_stringIcSt11char_traitsIcESaIcEEESaIS5_EE19_M_get_Tp_allocatorEv
	.addrsig_sym __clang_call_terminate
	.addrsig_sym __cxa_begin_catch
	.addrsig_sym _ZSt9terminatev
	.addrsig_sym _ZSt8_DestroyIPNSt7__cxx1112basic_stringIcSt11char_traitsIcESaIcEEEEvT_S7_
	.addrsig_sym _ZNSt12_Destroy_auxILb0EE9__destroyIPNSt7__cxx1112basic_stringIcSt11char_traitsIcESaIcEEEEEvT_S9_
	.addrsig_sym _ZSt8_DestroyINSt7__cxx1112basic_stringIcSt11char_traitsIcESaIcEEEEvPT_
	.addrsig_sym _ZSt11__addressofINSt7__cxx1112basic_stringIcSt11char_traitsIcESaIcEEEEPT_RS6_
	.addrsig_sym _ZNSt12_Vector_baseINSt7__cxx1112basic_stringIcSt11char_traitsIcESaIcEEESaIS5_EE13_M_deallocateEPS5_m
	.addrsig_sym _ZNSt16allocator_traitsISaINSt7__cxx1112basic_stringIcSt11char_traitsIcESaIcEEEEE10deallocateERS6_PS5_m
	.addrsig_sym _ZN9__gnu_cxx13new_allocatorINSt7__cxx1112basic_stringIcSt11char_traitsIcESaIcEEEE10deallocateEPS6_m
	.addrsig_sym _ZdlPv
	.addrsig_sym _ZSt11__addressofISiEPT_RS0_
	.addrsig_sym _ZNSt16istream_iteratorINSt7__cxx1112basic_stringIcSt11char_traitsIcESaIcEEEcS3_lE7_M_readEv
	.addrsig_sym _ZStrsIcSt11char_traitsIcESaIcEERSt13basic_istreamIT_T0_ES7_RNSt7__cxx1112basic_stringIS4_S5_T1_EE
	.addrsig_sym _ZNKSt9basic_iosIcSt11char_traitsIcEEntEv
	.addrsig_sym _ZSt11__addressofISt6vectorINSt7__cxx1112basic_stringIcSt11char_traitsIcESaIcEEESaIS6_EEEPT_RS9_
	.addrsig_sym _ZSt13__copy_move_aILb0ESt16istream_iteratorINSt7__cxx1112basic_stringIcSt11char_traitsIcESaIcEEEcS4_lESt20back_insert_iteratorISt6vectorIS6_SaIS6_EEEET1_T0_SE_SD_
	.addrsig_sym _ZSt12__miter_baseISt16istream_iteratorINSt7__cxx1112basic_stringIcSt11char_traitsIcESaIcEEEcS4_lEET_S8_
	.addrsig_sym _ZSt12__niter_wrapISt20back_insert_iteratorISt6vectorINSt7__cxx1112basic_stringIcSt11char_traitsIcESaIcEEESaIS7_EEEET_RKSB_SB_
	.addrsig_sym _ZSt14__copy_move_a1ILb0ESt16istream_iteratorINSt7__cxx1112basic_stringIcSt11char_traitsIcESaIcEEEcS4_lESt20back_insert_iteratorISt6vectorIS6_SaIS6_EEEET1_T0_SE_SD_
	.addrsig_sym _ZSt12__niter_baseISt16istream_iteratorINSt7__cxx1112basic_stringIcSt11char_traitsIcESaIcEEEcS4_lEET_S8_
	.addrsig_sym _ZSt12__niter_baseISt20back_insert_iteratorISt6vectorINSt7__cxx1112basic_stringIcSt11char_traitsIcESaIcEEESaIS7_EEEET_SB_
	.addrsig_sym _ZSt14__copy_move_a2ILb0ESt16istream_iteratorINSt7__cxx1112basic_stringIcSt11char_traitsIcESaIcEEEcS4_lESt20back_insert_iteratorISt6vectorIS6_SaIS6_EEEET1_T0_SE_SD_
	.addrsig_sym _ZNSt11__copy_moveILb0ELb0ESt18input_iterator_tagE8__copy_mISt16istream_iteratorINSt7__cxx1112basic_stringIcSt11char_traitsIcESaIcEEEcS7_lESt20back_insert_iteratorISt6vectorIS9_SaIS9_EEEEET0_T_SH_SG_
	.addrsig_sym _ZStneRKSt16istream_iteratorINSt7__cxx1112basic_stringIcSt11char_traitsIcESaIcEEEcS3_lES8_
	.addrsig_sym _ZNKSt16istream_iteratorINSt7__cxx1112basic_stringIcSt11char_traitsIcESaIcEEEcS3_lEdeEv
	.addrsig_sym _ZNSt20back_insert_iteratorISt6vectorINSt7__cxx1112basic_stringIcSt11char_traitsIcESaIcEEESaIS6_EEEdeEv
	.addrsig_sym _ZNSt20back_insert_iteratorISt6vectorINSt7__cxx1112basic_stringIcSt11char_traitsIcESaIcEEESaIS6_EEEaSERKS6_
	.addrsig_sym _ZNSt20back_insert_iteratorISt6vectorINSt7__cxx1112basic_stringIcSt11char_traitsIcESaIcEEESaIS6_EEEppEv
	.addrsig_sym _ZNSt16istream_iteratorINSt7__cxx1112basic_stringIcSt11char_traitsIcESaIcEEEcS3_lEppEv
	.addrsig_sym _ZNKSt16istream_iteratorINSt7__cxx1112basic_stringIcSt11char_traitsIcESaIcEEEcS3_lE8_M_equalERKS6_
	.addrsig_sym _ZNSt6vectorINSt7__cxx1112basic_stringIcSt11char_traitsIcESaIcEEESaIS5_EE9push_backERKS5_
	.addrsig_sym _ZNSt16allocator_traitsISaINSt7__cxx1112basic_stringIcSt11char_traitsIcESaIcEEEEE9constructIS5_JRKS5_EEEvRS6_PT_DpOT0_
	.addrsig_sym _ZNSt6vectorINSt7__cxx1112basic_stringIcSt11char_traitsIcESaIcEEESaIS5_EE17_M_realloc_insertIJRKS5_EEEvN9__gnu_cxx17__normal_iteratorIPS5_S7_EEDpOT_
	.addrsig_sym _ZNSt6vectorINSt7__cxx1112basic_stringIcSt11char_traitsIcESaIcEEESaIS5_EE3endEv
	.addrsig_sym _ZN9__gnu_cxx13new_allocatorINSt7__cxx1112basic_stringIcSt11char_traitsIcESaIcEEEE9constructIS6_JRKS6_EEEvPT_DpOT0_
	.addrsig_sym _ZSt7forwardIRKNSt7__cxx1112basic_stringIcSt11char_traitsIcESaIcEEEEOT_RNSt16remove_referenceIS8_E4typeE
	.addrsig_sym _ZNKSt6vectorINSt7__cxx1112basic_stringIcSt11char_traitsIcESaIcEEESaIS5_EE12_M_check_lenEmPKc
	.addrsig_sym _ZN9__gnu_cxxmiIPNSt7__cxx1112basic_stringIcSt11char_traitsIcESaIcEEESt6vectorIS6_SaIS6_EEEENS_17__normal_iteratorIT_T0_E15difference_typeERKSE_SH_
	.addrsig_sym _ZNSt6vectorINSt7__cxx1112basic_stringIcSt11char_traitsIcESaIcEEESaIS5_EE5beginEv
	.addrsig_sym _ZNSt12_Vector_baseINSt7__cxx1112basic_stringIcSt11char_traitsIcESaIcEEESaIS5_EE11_M_allocateEm
	.addrsig_sym _ZNSt6vectorINSt7__cxx1112basic_stringIcSt11char_traitsIcESaIcEEESaIS5_EE11_S_relocateEPS5_S8_S8_RS6_
	.addrsig_sym _ZNK9__gnu_cxx17__normal_iteratorIPNSt7__cxx1112basic_stringIcSt11char_traitsIcESaIcEEESt6vectorIS6_SaIS6_EEE4baseEv
	.addrsig_sym _ZNSt16allocator_traitsISaINSt7__cxx1112basic_stringIcSt11char_traitsIcESaIcEEEEE7destroyIS5_EEvRS6_PT_
	.addrsig_sym __cxa_rethrow
	.addrsig_sym __cxa_end_catch
	.addrsig_sym _ZNKSt6vectorINSt7__cxx1112basic_stringIcSt11char_traitsIcESaIcEEESaIS5_EE8max_sizeEv
	.addrsig_sym _ZNKSt6vectorINSt7__cxx1112basic_stringIcSt11char_traitsIcESaIcEEESaIS5_EE4sizeEv
	.addrsig_sym _ZSt20__throw_length_errorPKc
	.addrsig_sym _ZSt3maxImERKT_S2_S2_
	.addrsig_sym _ZNSt6vectorINSt7__cxx1112basic_stringIcSt11char_traitsIcESaIcEEESaIS5_EE11_S_max_sizeERKS6_
	.addrsig_sym _ZNKSt12_Vector_baseINSt7__cxx1112basic_stringIcSt11char_traitsIcESaIcEEESaIS5_EE19_M_get_Tp_allocatorEv
	.addrsig_sym _ZNSt16allocator_traitsISaINSt7__cxx1112basic_stringIcSt11char_traitsIcESaIcEEEEE8max_sizeERKS6_
	.addrsig_sym _ZSt3minImERKT_S2_S2_
	.addrsig_sym _ZNK9__gnu_cxx13new_allocatorINSt7__cxx1112basic_stringIcSt11char_traitsIcESaIcEEEE8max_sizeEv
	.addrsig_sym _ZNK9__gnu_cxx13new_allocatorINSt7__cxx1112basic_stringIcSt11char_traitsIcESaIcEEEE11_M_max_sizeEv
	.addrsig_sym _ZNSt16allocator_traitsISaINSt7__cxx1112basic_stringIcSt11char_traitsIcESaIcEEEEE8allocateERS6_m
	.addrsig_sym _ZN9__gnu_cxx13new_allocatorINSt7__cxx1112basic_stringIcSt11char_traitsIcESaIcEEEE8allocateEmPKv
	.addrsig_sym _ZSt17__throw_bad_allocv
	.addrsig_sym _Znwm
	.addrsig_sym _ZNSt6vectorINSt7__cxx1112basic_stringIcSt11char_traitsIcESaIcEEESaIS5_EE14_S_do_relocateEPS5_S8_S8_RS6_St17integral_constantIbLb1EE
	.addrsig_sym _ZSt12__relocate_aIPNSt7__cxx1112basic_stringIcSt11char_traitsIcESaIcEEES6_SaIS5_EET0_T_S9_S8_RT1_
	.addrsig_sym _ZSt14__relocate_a_1IPNSt7__cxx1112basic_stringIcSt11char_traitsIcESaIcEEES6_SaIS5_EET0_T_S9_S8_RT1_
	.addrsig_sym _ZSt12__niter_baseIPNSt7__cxx1112basic_stringIcSt11char_traitsIcESaIcEEEET_S7_
	.addrsig_sym _ZSt19__relocate_object_aINSt7__cxx1112basic_stringIcSt11char_traitsIcESaIcEEES5_SaIS5_EEvPT_PT0_RT1_
	.addrsig_sym _ZNSt16allocator_traitsISaINSt7__cxx1112basic_stringIcSt11char_traitsIcESaIcEEEEE9constructIS5_JS5_EEEvRS6_PT_DpOT0_
	.addrsig_sym _ZSt4moveIRNSt7__cxx1112basic_stringIcSt11char_traitsIcESaIcEEEEONSt16remove_referenceIT_E4typeEOS8_
	.addrsig_sym _ZN9__gnu_cxx13new_allocatorINSt7__cxx1112basic_stringIcSt11char_traitsIcESaIcEEEE9constructIS6_JS6_EEEvPT_DpOT0_
	.addrsig_sym _ZSt7forwardINSt7__cxx1112basic_stringIcSt11char_traitsIcESaIcEEEEOT_RNSt16remove_referenceIS6_E4typeE
	.addrsig_sym _ZN9__gnu_cxx13new_allocatorINSt7__cxx1112basic_stringIcSt11char_traitsIcESaIcEEEE7destroyIS6_EEvPT_
	.addrsig_sym _GLOBAL__sub_I_utils.cpp
	.addrsig_sym _Unwind_Resume
	.addrsig_sym __stack_chk_fail
	.addrsig_sym _ZStL8__ioinit
	.addrsig_sym __dso_handle
	.addrsig_sym _ZSt4cout
